GAS LISTING /tmp/ccL4VA2r.s 			page 1


   1              		.file	"console.c"
   2              		.option nopic
   3              		.option norelax
   4              		.text
   5              	.Ltext0:
   6              		.cfi_sections	.debug_frame
   7              		.align	2
   8              		.globl	initBuffers
  10              	initBuffers:
  11              	.LFB0:
  12              		.file 1 "src/console.c"
   1:src/console.c **** //
   2:src/console.c **** // Created by os on 8/1/22.
   3:src/console.c **** //
   4:src/console.c **** //
   5:src/console.c **** #include "../h/kernel.h"
   6:src/console.c **** #include "../h/syscall_c.h"
   7:src/console.c **** 
   8:src/console.c **** #define BUFFSIZE 900000
   9:src/console.c **** 
  10:src/console.c **** char* uartBuffer1;
  11:src/console.c **** char* uartBuffer2;
  12:src/console.c **** volatile int bw1=0,br1=0;
  13:src/console.c **** volatile int bw2=0,br2=0;
  14:src/console.c **** sem_t mutex1,mutex2;
  15:src/console.c **** sem_t ioSemEmpty1;
  16:src/console.c **** void initBuffers(){
  13              		.loc 1 16 19
  14              		.cfi_startproc
  15 0000 130101FE 		addi	sp,sp,-32
  16              		.cfi_def_cfa_offset 32
  17 0004 233C1100 		sd	ra,24(sp)
  18 0008 23388100 		sd	s0,16(sp)
  19 000c 23349100 		sd	s1,8(sp)
  20              		.cfi_offset 1, -8
  21              		.cfi_offset 8, -16
  22              		.cfi_offset 9, -24
  23 0010 13040102 		addi	s0,sp,32
  24              		.cfi_def_cfa 8, 0
  17:src/console.c ****     uartBuffer1= __mem_alloc(BUFFSIZE*sizeof (char));
  25              		.loc 1 17 5
  26              		.loc 1 17 18 is_stmt 0
  27 0014 B7C40D00 		li	s1,901120
  28 0018 138504BA 		addi	a0,s1,-1120
  29 001c 97000000 		call	__mem_alloc
  29      E7800000 
  30              	.LVL0:
  31              		.loc 1 17 16
  32 0024 97070000 		sd	a0,uartBuffer1,a5
  32      23B0A700 
  18:src/console.c ****     uartBuffer2= __mem_alloc(BUFFSIZE*sizeof (char));
  33              		.loc 1 18 5 is_stmt 1
  34              		.loc 1 18 18 is_stmt 0
  35 002c 138504BA 		addi	a0,s1,-1120
  36 0030 97000000 		call	__mem_alloc
  36      E7800000 
  37              	.LVL1:
GAS LISTING /tmp/ccL4VA2r.s 			page 2


  38              		.loc 1 18 16
  39 0038 97070000 		sd	a0,uartBuffer2,a5
  39      23B0A700 
  19:src/console.c ****     __sem_open(&mutex1,1);
  40              		.loc 1 19 5 is_stmt 1
  41 0040 93051000 		li	a1,1
  42 0044 17050000 		lla	a0,mutex1
  42      13050500 
  43 004c 97000000 		call	__sem_open
  43      E7800000 
  44              	.LVL2:
  20:src/console.c ****     __sem_open(&mutex2,1);
  45              		.loc 1 20 5
  46 0054 93051000 		li	a1,1
  47 0058 17050000 		lla	a0,mutex2
  47      13050500 
  48 0060 97000000 		call	__sem_open
  48      E7800000 
  49              	.LVL3:
  21:src/console.c ****     __sem_open(&ioSemEmpty1,0);
  50              		.loc 1 21 5
  51 0068 93050000 		li	a1,0
  52 006c 17050000 		lla	a0,ioSemEmpty1
  52      13050500 
  53 0074 97000000 		call	__sem_open
  53      E7800000 
  54              	.LVL4:
  22:src/console.c **** }
  55              		.loc 1 22 1 is_stmt 0
  56 007c 83308101 		ld	ra,24(sp)
  57              		.cfi_restore 1
  58 0080 03340101 		ld	s0,16(sp)
  59              		.cfi_restore 8
  60              		.cfi_def_cfa 2, 32
  61 0084 83348100 		ld	s1,8(sp)
  62              		.cfi_restore 9
  63 0088 13010102 		addi	sp,sp,32
  64              		.cfi_def_cfa_offset 0
  65 008c 67800000 		jr	ra
  66              		.cfi_endproc
  67              	.LFE0:
  69              		.align	2
  70              		.globl	put_uart1
  72              	put_uart1:
  73              	.LFB1:
  23:src/console.c **** void put_uart1(char c){
  74              		.loc 1 23 23 is_stmt 1
  75              		.cfi_startproc
  76              	.LVL5:
  77 0090 130101FE 		addi	sp,sp,-32
  78              		.cfi_def_cfa_offset 32
  79 0094 233C1100 		sd	ra,24(sp)
  80 0098 23388100 		sd	s0,16(sp)
  81 009c 23349100 		sd	s1,8(sp)
  82 00a0 23302101 		sd	s2,0(sp)
  83              		.cfi_offset 1, -8
  84              		.cfi_offset 8, -16
GAS LISTING /tmp/ccL4VA2r.s 			page 3


  85              		.cfi_offset 9, -24
  86              		.cfi_offset 18, -32
  87 00a4 13040102 		addi	s0,sp,32
  88              		.cfi_def_cfa 8, 0
  89 00a8 93040500 		mv	s1,a0
  24:src/console.c ****     __sem_wait(mutex1);
  90              		.loc 1 24 5
  91 00ac 17090000 		lla	s2,mutex1
  91      13090900 
  92 00b4 03350900 		ld	a0,0(s2)
  93              	.LVL6:
  94 00b8 97000000 		call	__sem_wait
  94      E7800000 
  95              	.LVL7:
  25:src/console.c ****     uartBuffer1[bw1++]=c;
  96              		.loc 1 25 5
  97              		.loc 1 25 20 is_stmt 0
  98 00c0 17070000 		lla	a4,bw1
  98      13070700 
  99 00c8 83270700 		lw	a5,0(a4)
 100 00cc 9B860700 		sext.w	a3,a5
 101 00d0 9B871700 		addiw	a5,a5,1
 102 00d4 2320F700 		sw	a5,0(a4)
 103              		.loc 1 25 16
 104 00d8 97070000 		ld	a5,uartBuffer1
 104      83B70700 
 105 00e0 B387D700 		add	a5,a5,a3
 106              		.loc 1 25 23
 107 00e4 23809700 		sb	s1,0(a5)
  26:src/console.c **** 
  27:src/console.c ****     __sem_signal(mutex1);
 108              		.loc 1 27 5 is_stmt 1
 109 00e8 03350900 		ld	a0,0(s2)
 110 00ec 97000000 		call	__sem_signal
 110      E7800000 
 111              	.LVL8:
  28:src/console.c **** }
 112              		.loc 1 28 1 is_stmt 0
 113 00f4 83308101 		ld	ra,24(sp)
 114              		.cfi_restore 1
 115 00f8 03340101 		ld	s0,16(sp)
 116              		.cfi_restore 8
 117              		.cfi_def_cfa 2, 32
 118 00fc 83348100 		ld	s1,8(sp)
 119              		.cfi_restore 9
 120 0100 03390100 		ld	s2,0(sp)
 121              		.cfi_restore 18
 122 0104 13010102 		addi	sp,sp,32
 123              		.cfi_def_cfa_offset 0
 124 0108 67800000 		jr	ra
 125              		.cfi_endproc
 126              	.LFE1:
 128              		.align	2
 129              		.globl	get_uart1
 131              	get_uart1:
 132              	.LFB2:
  29:src/console.c **** char get_uart1(){
GAS LISTING /tmp/ccL4VA2r.s 			page 4


 133              		.loc 1 29 17 is_stmt 1
 134              		.cfi_startproc
 135 010c 130101FE 		addi	sp,sp,-32
 136              		.cfi_def_cfa_offset 32
 137 0110 233C1100 		sd	ra,24(sp)
 138 0114 23388100 		sd	s0,16(sp)
 139 0118 23349100 		sd	s1,8(sp)
 140              		.cfi_offset 1, -8
 141              		.cfi_offset 8, -16
 142              		.cfi_offset 9, -24
 143 011c 13040102 		addi	s0,sp,32
 144              		.cfi_def_cfa 8, 0
  30:src/console.c ****     __sem_wait(mutex1);
 145              		.loc 1 30 5
 146 0120 17050000 		ld	a0,mutex1
 146      03350500 
 147 0128 97000000 		call	__sem_wait
 147      E7800000 
 148              	.LVL9:
  31:src/console.c ****     if(br1==bw1){
 149              		.loc 1 31 5
 150              		.loc 1 31 11 is_stmt 0
 151 0130 17070000 		lw	a4,br1
 151      03270700 
 152 0138 97070000 		lw	a5,bw1
 152      83A70700 
 153              		.loc 1 31 7
 154 0140 6302F704 		beq	a4,a5,.L10
 155              	.L6:
  32:src/console.c ****         br1=0;bw1=0;
  33:src/console.c ****         __sem_signal(mutex1);
  34:src/console.c ****     }
  35:src/console.c ****     if(br1<bw1) {
 156              		.loc 1 35 5 is_stmt 1
 157              		.loc 1 35 11 is_stmt 0
 158 0144 17070000 		lw	a4,br1
 158      03270700 
 159 014c 97070000 		lw	a5,bw1
 159      83A70700 
 160              		.loc 1 35 7
 161 0154 634AF704 		blt	a4,a5,.L11
  36:src/console.c ****         char c = uartBuffer1[br1++];
  37:src/console.c ****         __sem_signal(mutex1);
  38:src/console.c ****         return c;
  39:src/console.c ****     }
  40:src/console.c ****     __sem_signal(mutex1);
 162              		.loc 1 40 5 is_stmt 1
 163 0158 17050000 		ld	a0,mutex1
 163      03350500 
 164 0160 97000000 		call	__sem_signal
 164      E7800000 
 165              	.LVL10:
  41:src/console.c ****     return EOF;
 166              		.loc 1 41 5
 167              		.loc 1 41 12 is_stmt 0
 168 0168 9304F00F 		li	s1,255
 169              	.L8:
GAS LISTING /tmp/ccL4VA2r.s 			page 5


  42:src/console.c **** }
 170              		.loc 1 42 1
 171 016c 13850400 		mv	a0,s1
 172 0170 83308101 		ld	ra,24(sp)
 173              		.cfi_remember_state
 174              		.cfi_restore 1
 175 0174 03340101 		ld	s0,16(sp)
 176              		.cfi_restore 8
 177              		.cfi_def_cfa 2, 32
 178 0178 83348100 		ld	s1,8(sp)
 179              		.cfi_restore 9
 180 017c 13010102 		addi	sp,sp,32
 181              		.cfi_def_cfa_offset 0
 182 0180 67800000 		jr	ra
 183              	.L10:
 184              		.cfi_restore_state
  32:src/console.c ****         __sem_signal(mutex1);
 185              		.loc 1 32 9 is_stmt 1
  32:src/console.c ****         __sem_signal(mutex1);
 186              		.loc 1 32 12 is_stmt 0
 187 0184 97070000 		sw	zero,br1,a5
 187      23A00700 
  32:src/console.c ****         __sem_signal(mutex1);
 188              		.loc 1 32 15 is_stmt 1
  32:src/console.c ****         __sem_signal(mutex1);
 189              		.loc 1 32 18 is_stmt 0
 190 018c 97070000 		sw	zero,bw1,a5
 190      23A00700 
  33:src/console.c ****     }
 191              		.loc 1 33 9 is_stmt 1
 192 0194 17050000 		ld	a0,mutex1
 192      03350500 
 193 019c 97000000 		call	__sem_signal
 193      E7800000 
 194              	.LVL11:
 195 01a4 6FF01FFA 		j	.L6
 196              	.L11:
 197              	.LBB2:
  36:src/console.c ****         __sem_signal(mutex1);
 198              		.loc 1 36 9
  36:src/console.c ****         __sem_signal(mutex1);
 199              		.loc 1 36 33 is_stmt 0
 200 01a8 17070000 		lla	a4,br1
 200      13070700 
 201 01b0 83270700 		lw	a5,0(a4)
 202 01b4 9B860700 		sext.w	a3,a5
 203 01b8 9B871700 		addiw	a5,a5,1
 204 01bc 2320F700 		sw	a5,0(a4)
  36:src/console.c ****         __sem_signal(mutex1);
 205              		.loc 1 36 29
 206 01c0 97070000 		ld	a5,uartBuffer1
 206      83B70700 
 207 01c8 B387D700 		add	a5,a5,a3
  36:src/console.c ****         __sem_signal(mutex1);
 208              		.loc 1 36 14
 209 01cc 83C40700 		lbu	s1,0(a5)
 210              	.LVL12:
GAS LISTING /tmp/ccL4VA2r.s 			page 6


  37:src/console.c ****         return c;
 211              		.loc 1 37 9 is_stmt 1
 212 01d0 17050000 		ld	a0,mutex1
 212      03350500 
 213 01d8 97000000 		call	__sem_signal
 213      E7800000 
 214              	.LVL13:
  38:src/console.c ****     }
 215              		.loc 1 38 9
  38:src/console.c ****     }
 216              		.loc 1 38 16 is_stmt 0
 217 01e0 6FF0DFF8 		j	.L8
 218              	.LBE2:
 219              		.cfi_endproc
 220              	.LFE2:
 222              		.align	2
 223              		.globl	put_uart2
 225              	put_uart2:
 226              	.LFB3:
  43:src/console.c **** void put_uart2(char c){
 227              		.loc 1 43 23 is_stmt 1
 228              		.cfi_startproc
 229              	.LVL14:
 230 01e4 130101FE 		addi	sp,sp,-32
 231              		.cfi_def_cfa_offset 32
 232 01e8 233C1100 		sd	ra,24(sp)
 233 01ec 23388100 		sd	s0,16(sp)
 234 01f0 23349100 		sd	s1,8(sp)
 235 01f4 23302101 		sd	s2,0(sp)
 236              		.cfi_offset 1, -8
 237              		.cfi_offset 8, -16
 238              		.cfi_offset 9, -24
 239              		.cfi_offset 18, -32
 240 01f8 13040102 		addi	s0,sp,32
 241              		.cfi_def_cfa 8, 0
 242 01fc 93040500 		mv	s1,a0
  44:src/console.c ****     __sem_wait(mutex2);
 243              		.loc 1 44 5
 244 0200 17090000 		lla	s2,mutex2
 244      13090900 
 245 0208 03350900 		ld	a0,0(s2)
 246              	.LVL15:
 247 020c 97000000 		call	__sem_wait
 247      E7800000 
 248              	.LVL16:
  45:src/console.c ****     uartBuffer2[bw2++]=c;
 249              		.loc 1 45 5
 250              		.loc 1 45 20 is_stmt 0
 251 0214 17070000 		lla	a4,bw2
 251      13070700 
 252 021c 83270700 		lw	a5,0(a4)
 253 0220 9B860700 		sext.w	a3,a5
 254 0224 9B871700 		addiw	a5,a5,1
 255 0228 2320F700 		sw	a5,0(a4)
 256              		.loc 1 45 16
 257 022c 97070000 		ld	a5,uartBuffer2
 257      83B70700 
GAS LISTING /tmp/ccL4VA2r.s 			page 7


 258 0234 B387D700 		add	a5,a5,a3
 259              		.loc 1 45 23
 260 0238 23809700 		sb	s1,0(a5)
  46:src/console.c ****     __sem_signal(mutex2);
 261              		.loc 1 46 5 is_stmt 1
 262 023c 03350900 		ld	a0,0(s2)
 263 0240 97000000 		call	__sem_signal
 263      E7800000 
 264              	.LVL17:
  47:src/console.c **** }
 265              		.loc 1 47 1 is_stmt 0
 266 0248 83308101 		ld	ra,24(sp)
 267              		.cfi_restore 1
 268 024c 03340101 		ld	s0,16(sp)
 269              		.cfi_restore 8
 270              		.cfi_def_cfa 2, 32
 271 0250 83348100 		ld	s1,8(sp)
 272              		.cfi_restore 9
 273 0254 03390100 		ld	s2,0(sp)
 274              		.cfi_restore 18
 275 0258 13010102 		addi	sp,sp,32
 276              		.cfi_def_cfa_offset 0
 277 025c 67800000 		jr	ra
 278              		.cfi_endproc
 279              	.LFE3:
 281              		.align	2
 282              		.globl	get_uart2
 284              	get_uart2:
 285              	.LFB4:
  48:src/console.c **** char get_uart2(){
 286              		.loc 1 48 17 is_stmt 1
 287              		.cfi_startproc
 288 0260 130101FF 		addi	sp,sp,-16
 289              		.cfi_def_cfa_offset 16
 290 0264 23341100 		sd	ra,8(sp)
 291 0268 23308100 		sd	s0,0(sp)
 292              		.cfi_offset 1, -8
 293              		.cfi_offset 8, -16
 294 026c 13040101 		addi	s0,sp,16
 295              		.cfi_def_cfa 8, 0
  49:src/console.c ****     __sem_wait(mutex2);
 296              		.loc 1 49 5
 297 0270 17050000 		ld	a0,mutex2
 297      03350500 
 298 0278 97000000 		call	__sem_wait
 298      E7800000 
 299              	.LVL18:
  50:src/console.c ****     if(br2<bw2) {
 300              		.loc 1 50 5
 301              		.loc 1 50 11 is_stmt 0
 302 0280 17070000 		lw	a4,br2
 302      03270700 
 303 0288 97070000 		lw	a5,bw2
 303      83A70700 
 304              		.loc 1 50 7
 305 0290 634CF702 		blt	a4,a5,.L18
  51:src/console.c ****         __sem_signal(mutex2);
GAS LISTING /tmp/ccL4VA2r.s 			page 8


  52:src/console.c ****         return uartBuffer2[br2++];
  53:src/console.c **** 
  54:src/console.c ****     }
  55:src/console.c ****     br2=0;bw2=0;
 306              		.loc 1 55 5 is_stmt 1
 307              		.loc 1 55 8 is_stmt 0
 308 0294 97070000 		sw	zero,br2,a5
 308      23A00700 
 309              		.loc 1 55 11 is_stmt 1
 310              		.loc 1 55 14 is_stmt 0
 311 029c 97070000 		sw	zero,bw2,a5
 311      23A00700 
  56:src/console.c ****     __sem_signal(mutex2);
 312              		.loc 1 56 5 is_stmt 1
 313 02a4 17050000 		ld	a0,mutex2
 313      03350500 
 314 02ac 97000000 		call	__sem_signal
 314      E7800000 
 315              	.LVL19:
  57:src/console.c ****     return EOF;
 316              		.loc 1 57 5
 317              		.loc 1 57 12 is_stmt 0
 318 02b4 1305F00F 		li	a0,255
 319              	.L16:
  58:src/console.c **** 
  59:src/console.c **** }
 320              		.loc 1 59 1
 321 02b8 83308100 		ld	ra,8(sp)
 322              		.cfi_remember_state
 323              		.cfi_restore 1
 324 02bc 03340100 		ld	s0,0(sp)
 325              		.cfi_restore 8
 326              		.cfi_def_cfa 2, 16
 327 02c0 13010101 		addi	sp,sp,16
 328              		.cfi_def_cfa_offset 0
 329 02c4 67800000 		jr	ra
 330              	.L18:
 331              		.cfi_restore_state
  51:src/console.c ****         return uartBuffer2[br2++];
 332              		.loc 1 51 9 is_stmt 1
 333 02c8 17050000 		ld	a0,mutex2
 333      03350500 
 334 02d0 97000000 		call	__sem_signal
 334      E7800000 
 335              	.LVL20:
  52:src/console.c **** 
 336              		.loc 1 52 9
  52:src/console.c **** 
 337              		.loc 1 52 31 is_stmt 0
 338 02d8 17070000 		lla	a4,br2
 338      13070700 
 339 02e0 83270700 		lw	a5,0(a4)
 340 02e4 9B860700 		sext.w	a3,a5
 341 02e8 9B871700 		addiw	a5,a5,1
 342 02ec 2320F700 		sw	a5,0(a4)
  52:src/console.c **** 
 343              		.loc 1 52 27
GAS LISTING /tmp/ccL4VA2r.s 			page 9


 344 02f0 97070000 		ld	a5,uartBuffer2
 344      83B70700 
 345 02f8 B387D700 		add	a5,a5,a3
 346 02fc 03C50700 		lbu	a0,0(a5)
 347 0300 6FF09FFB 		j	.L16
 348              		.cfi_endproc
 349              	.LFE4:
 351              		.align	2
 352              		.globl	isEmpty1
 354              	isEmpty1:
 355              	.LFB5:
  60:src/console.c **** int  isEmpty1(){
 356              		.loc 1 60 16 is_stmt 1
 357              		.cfi_startproc
 358 0304 130101FF 		addi	sp,sp,-16
 359              		.cfi_def_cfa_offset 16
 360 0308 23348100 		sd	s0,8(sp)
 361              		.cfi_offset 8, -8
 362 030c 13040101 		addi	s0,sp,16
 363              		.cfi_def_cfa 8, 0
  61:src/console.c **** 
  62:src/console.c ****     if(br1==bw1){
 364              		.loc 1 62 5
 365              		.loc 1 62 11 is_stmt 0
 366 0310 17070000 		lw	a4,br1
 366      03270700 
 367 0318 97070000 		lw	a5,bw1
 367      83A70700 
 368              		.loc 1 62 7
 369 0320 630AF700 		beq	a4,a5,.L21
  63:src/console.c ****         return 1;
  64:src/console.c ****     }
  65:src/console.c ****     return 0;
 370              		.loc 1 65 12
 371 0324 13050000 		li	a0,0
 372              	.L20:
  66:src/console.c **** }
 373              		.loc 1 66 1
 374 0328 03348100 		ld	s0,8(sp)
 375              		.cfi_remember_state
 376              		.cfi_restore 8
 377              		.cfi_def_cfa 2, 16
 378 032c 13010101 		addi	sp,sp,16
 379              		.cfi_def_cfa_offset 0
 380 0330 67800000 		jr	ra
 381              	.L21:
 382              		.cfi_restore_state
  63:src/console.c ****         return 1;
 383              		.loc 1 63 16
 384 0334 13051000 		li	a0,1
 385 0338 6FF01FFF 		j	.L20
 386              		.cfi_endproc
 387              	.LFE5:
 389              		.align	2
 390              		.globl	isEmpty2
 392              	isEmpty2:
 393              	.LFB6:
GAS LISTING /tmp/ccL4VA2r.s 			page 10


  67:src/console.c **** int  isEmpty2(){
 394              		.loc 1 67 16 is_stmt 1
 395              		.cfi_startproc
 396 033c 130101FF 		addi	sp,sp,-16
 397              		.cfi_def_cfa_offset 16
 398 0340 23348100 		sd	s0,8(sp)
 399              		.cfi_offset 8, -8
 400 0344 13040101 		addi	s0,sp,16
 401              		.cfi_def_cfa 8, 0
  68:src/console.c **** 
  69:src/console.c ****     if(br2==bw2){
 402              		.loc 1 69 5
 403              		.loc 1 69 11 is_stmt 0
 404 0348 17070000 		lw	a4,br2
 404      03270700 
 405 0350 97070000 		lw	a5,bw2
 405      83A70700 
 406              		.loc 1 69 7
 407 0358 630AF700 		beq	a4,a5,.L25
  70:src/console.c **** 
  71:src/console.c ****         return 1;
  72:src/console.c ****     }
  73:src/console.c ****     return 0;
 408              		.loc 1 73 12
 409 035c 13050000 		li	a0,0
 410              	.L24:
  74:src/console.c **** }
 411              		.loc 1 74 1
 412 0360 03348100 		ld	s0,8(sp)
 413              		.cfi_remember_state
 414              		.cfi_restore 8
 415              		.cfi_def_cfa 2, 16
 416 0364 13010101 		addi	sp,sp,16
 417              		.cfi_def_cfa_offset 0
 418 0368 67800000 		jr	ra
 419              	.L25:
 420              		.cfi_restore_state
  71:src/console.c ****     }
 421              		.loc 1 71 16
 422 036c 13051000 		li	a0,1
 423 0370 6FF01FFF 		j	.L24
 424              		.cfi_endproc
 425              	.LFE6:
 427              		.align	2
 428              		.globl	isFull2
 430              	isFull2:
 431              	.LFB7:
  75:src/console.c **** int isFull2(){
 432              		.loc 1 75 14 is_stmt 1
 433              		.cfi_startproc
 434 0374 130101FF 		addi	sp,sp,-16
 435              		.cfi_def_cfa_offset 16
 436 0378 23348100 		sd	s0,8(sp)
 437              		.cfi_offset 8, -8
 438 037c 13040101 		addi	s0,sp,16
 439              		.cfi_def_cfa 8, 0
  76:src/console.c ****     if(bw2>=(BUFFSIZE-1)){
GAS LISTING /tmp/ccL4VA2r.s 			page 11


 440              		.loc 1 76 5
 441              		.loc 1 76 11 is_stmt 0
 442 0380 17070000 		lw	a4,bw2
 442      03270700 
 443              		.loc 1 76 7
 444 0388 B7C70D00 		li	a5,901120
 445 038c 9387E7B9 		addi	a5,a5,-1122
 446 0390 63DAE700 		ble	a4,a5,.L29
  77:src/console.c ****         return 1;
 447              		.loc 1 77 16
 448 0394 13051000 		li	a0,1
 449              	.L28:
  78:src/console.c ****     }
  79:src/console.c ****     else return 0;
  80:src/console.c **** }
 450              		.loc 1 80 1
 451 0398 03348100 		ld	s0,8(sp)
 452              		.cfi_remember_state
 453              		.cfi_restore 8
 454              		.cfi_def_cfa 2, 16
 455 039c 13010101 		addi	sp,sp,16
 456              		.cfi_def_cfa_offset 0
 457 03a0 67800000 		jr	ra
 458              	.L29:
 459              		.cfi_restore_state
  79:src/console.c **** }
 460              		.loc 1 79 17
 461 03a4 13050000 		li	a0,0
 462 03a8 6FF01FFF 		j	.L28
 463              		.cfi_endproc
 464              	.LFE7:
 466              		.align	2
 467              		.globl	isFull1
 469              	isFull1:
 470              	.LFB8:
  81:src/console.c **** int isFull1(){
 471              		.loc 1 81 14 is_stmt 1
 472              		.cfi_startproc
 473 03ac 130101FF 		addi	sp,sp,-16
 474              		.cfi_def_cfa_offset 16
 475 03b0 23348100 		sd	s0,8(sp)
 476              		.cfi_offset 8, -8
 477 03b4 13040101 		addi	s0,sp,16
 478              		.cfi_def_cfa 8, 0
  82:src/console.c ****     if(bw1>=(BUFFSIZE-1)){
 479              		.loc 1 82 5
 480              		.loc 1 82 11 is_stmt 0
 481 03b8 17070000 		lw	a4,bw1
 481      03270700 
 482              		.loc 1 82 7
 483 03c0 B7C70D00 		li	a5,901120
 484 03c4 9387E7B9 		addi	a5,a5,-1122
 485 03c8 63DAE700 		ble	a4,a5,.L33
  83:src/console.c ****         return 1;
 486              		.loc 1 83 16
 487 03cc 13051000 		li	a0,1
 488              	.L32:
GAS LISTING /tmp/ccL4VA2r.s 			page 12


  84:src/console.c ****     }
  85:src/console.c ****     else return 0;
  86:src/console.c **** }
 489              		.loc 1 86 1
 490 03d0 03348100 		ld	s0,8(sp)
 491              		.cfi_remember_state
 492              		.cfi_restore 8
 493              		.cfi_def_cfa 2, 16
 494 03d4 13010101 		addi	sp,sp,16
 495              		.cfi_def_cfa_offset 0
 496 03d8 67800000 		jr	ra
 497              	.L33:
 498              		.cfi_restore_state
  85:src/console.c **** }
 499              		.loc 1 85 17
 500 03dc 13050000 		li	a0,0
 501 03e0 6FF01FFF 		j	.L32
 502              		.cfi_endproc
 503              	.LFE8:
 505              		.align	2
 506              		.globl	getc
 508              	getc:
 509              	.LFB9:
  87:src/console.c **** char getc (){
 510              		.loc 1 87 13 is_stmt 1
 511              		.cfi_startproc
  88:src/console.c ****     int ret;
 512              		.loc 1 88 5
  89:src/console.c ****     if(!uartBuffer1) return EOF;
 513              		.loc 1 89 5
 514              		.loc 1 89 8 is_stmt 0
 515 03e4 97070000 		ld	a5,uartBuffer1
 515      83B70700 
 516              		.loc 1 89 7
 517 03ec 638A0704 		beqz	a5,.L43
  87:src/console.c **** char getc (){
 518              		.loc 1 87 13
 519 03f0 130101FF 		addi	sp,sp,-16
 520              		.cfi_def_cfa_offset 16
 521 03f4 23341100 		sd	ra,8(sp)
 522 03f8 23308100 		sd	s0,0(sp)
 523              		.cfi_offset 1, -8
 524              		.cfi_offset 8, -16
 525 03fc 13040101 		addi	s0,sp,16
 526              		.cfi_def_cfa 8, 0
 527 0400 6F004001 		j	.L37
 528              	.L38:
  90:src/console.c ****     while(isEmpty1()){
  91:src/console.c ****         sem_wait(ioSemEmpty1);
 529              		.loc 1 91 9 is_stmt 1
 530 0404 17050000 		ld	a0,ioSemEmpty1
 530      03350500 
 531 040c 97000000 		call	sem_wait
 531      E7800000 
 532              	.LVL21:
 533              	.L37:
  90:src/console.c ****     while(isEmpty1()){
GAS LISTING /tmp/ccL4VA2r.s 			page 13


 534              		.loc 1 90 10
  90:src/console.c ****     while(isEmpty1()){
 535              		.loc 1 90 11 is_stmt 0
 536 0414 97000000 		call	isEmpty1
 536      E7800000 
 537              	.LVL22:
  90:src/console.c ****     while(isEmpty1()){
 538              		.loc 1 90 10
 539 041c E31405FE 		bnez	a0,.L38
  92:src/console.c ****     }
  93:src/console.c ****     /*while(isEmpty1()){
  94:src/console.c ****         __sem_wait(ioSemEmpty1);
  95:src/console.c ****     }*/
  96:src/console.c ****     asm volatile ("li a0, 0x41\n" // Broj poziva
 540              		.loc 1 96 5 is_stmt 1
 541              	#APP
 542              	# 96 "src/console.c" 1
  97 0424 73000000 	                  "\tecall\n"
  98 0428 93070500 	                  "\tmv %0, a0\n" // Povratna vrednost
  99              	                    : "=r" (ret)
 100              	                    :
 543              		li a0, 0x41
 544              		ecall
 545              		mv a5, a0
 546              	
 547              	# 0 "" 2
 548              	.LVL23:
 101:src/console.c ****                     : "a0");
 102:src/console.c **** 
 103:src/console.c **** 
 104:src/console.c ****     return ret;
 549              		.loc 1 104 5
 550              		.loc 1 104 12 is_stmt 0
 551              	#NO_APP
 552 042c 13F5F70F 		andi	a0,a5,0xff
 105:src/console.c **** 
 106:src/console.c **** }
 553              		.loc 1 106 1
 554 0430 83308100 		ld	ra,8(sp)
 555              		.cfi_restore 1
 556 0434 03340100 		ld	s0,0(sp)
 557              		.cfi_restore 8
 558              		.cfi_def_cfa 2, 16
 559 0438 13010101 		addi	sp,sp,16
 560              		.cfi_def_cfa_offset 0
 561 043c 67800000 		jr	ra
 562              	.LVL24:
 563              	.L43:
  89:src/console.c ****     while(isEmpty1()){
 564              		.loc 1 89 29
 565 0440 1305F00F 		li	a0,255
 566              		.loc 1 106 1
 567 0444 67800000 		ret
 568              		.cfi_endproc
 569              	.LFE9:
 571              		.align	2
 572              		.globl	putc
GAS LISTING /tmp/ccL4VA2r.s 			page 14


 574              	putc:
 575              	.LFB10:
 107:src/console.c **** void putc (char c){
 576              		.loc 1 107 19 is_stmt 1
 577              		.cfi_startproc
 578              	.LVL25:
 579 0448 130101FE 		addi	sp,sp,-32
 580              		.cfi_def_cfa_offset 32
 581 044c 233C1100 		sd	ra,24(sp)
 582 0450 23388100 		sd	s0,16(sp)
 583 0454 23349100 		sd	s1,8(sp)
 584              		.cfi_offset 1, -8
 585              		.cfi_offset 8, -16
 586              		.cfi_offset 9, -24
 587 0458 13040102 		addi	s0,sp,32
 588              		.cfi_def_cfa 8, 0
 589 045c 93040500 		mv	s1,a0
 108:src/console.c **** 
 109:src/console.c ****     while(isFull2()){}
 590              		.loc 1 109 5
 591              	.LVL26:
 592              	.L45:
 593              		.loc 1 109 22 discriminator 1
 594              		.loc 1 109 10 discriminator 1
 595              		.loc 1 109 11 is_stmt 0 discriminator 1
 596 0460 97000000 		call	isFull2
 596      E7800000 
 597              	.LVL27:
 598              		.loc 1 109 10 discriminator 1
 599 0468 E31C05FE 		bnez	a0,.L45
 110:src/console.c ****     asm volatile ("li a0, 0x42\n"// Broj poziva
 600              		.loc 1 110 5 is_stmt 1
 601              	#APP
 602              	# 110 "src/console.c" 1
 111 0470 93850400 	                 "\tmv a1, %0\n"
 112 0474 73000000 	                  "\tecall\n"
 113              	                  ::"r"(c)
 114              	                  :"a0","a1"
 115:src/console.c ****             );
 116:src/console.c **** 
 117:src/console.c **** 
 118:src/console.c **** }
 603              		li a0, 0x42
 604              		mv a1, s1
 605              		ecall
 606              	
 607              	# 0 "" 2
 608              		.loc 1 118 1 is_stmt 0
 609              	#NO_APP
 610 0478 83308101 		ld	ra,24(sp)
 611              		.cfi_restore 1
 612 047c 03340101 		ld	s0,16(sp)
 613              		.cfi_restore 8
 614              		.cfi_def_cfa 2, 32
 615 0480 83348100 		ld	s1,8(sp)
 616              		.cfi_restore 9
 617 0484 13010102 		addi	sp,sp,32
GAS LISTING /tmp/ccL4VA2r.s 			page 15


 618              		.cfi_def_cfa_offset 0
 619 0488 67800000 		jr	ra
 620              		.cfi_endproc
 621              	.LFE10:
 623              		.globl	ioSemEmpty1
 624              		.globl	mutex2
 625              		.globl	mutex1
 626              		.globl	br2
 627              		.globl	bw2
 628              		.globl	br1
 629              		.globl	bw1
 630              		.globl	uartBuffer2
 631              		.globl	uartBuffer1
 632              		.section	.sbss,"aw",@nobits
 633              		.align	3
 636              	ioSemEmpty1:
 637 0000 00000000 		.zero	8
 637      00000000 
 640              	mutex2:
 641 0008 00000000 		.zero	8
 641      00000000 
 644              	mutex1:
 645 0010 00000000 		.zero	8
 645      00000000 
 648              	br2:
 649 0018 00000000 		.zero	4
 652              	bw2:
 653 001c 00000000 		.zero	4
 656              	br1:
 657 0020 00000000 		.zero	4
 660              	bw1:
 661 0024 00000000 		.zero	4
 664              	uartBuffer2:
 665 0028 00000000 		.zero	8
 665      00000000 
 668              	uartBuffer1:
 669 0030 00000000 		.zero	8
 669      00000000 
 670              		.text
 671              	.Letext0:
 672              		.file 2 "src/../h/../lib/hw.h"
 673              		.file 3 "src/../h/syscall_c.h"
 674              		.file 4 "src/../h/kernel.h"
GAS LISTING /tmp/ccL4VA2r.s 			page 16

