GAS LISTING /tmp/ccCr5Wow.s 			page 1


   1              		.file	"kernel.c"
   2              		.option nopic
   3              		.option norelax
   4              		.text
   5              	.Ltext0:
   6              		.cfi_sections	.debug_frame
   7              		.align	2
   8              		.globl	idle_funct
  10              	idle_funct:
  11              	.LFB15:
  12              		.file 1 "src/kernel.c"
   1:src/kernel.c  **** //
   2:src/kernel.c  **** // Created by os on 5/20/22.
   3:src/kernel.c  **** //
   4:src/kernel.c  **** 
   5:src/kernel.c  **** #include "../h/kernel.h"
   6:src/kernel.c  **** #include "../h/syscall_c.h"
   7:src/kernel.c  **** 
   8:src/kernel.c  **** extern uintptr hstart;
   9:src/kernel.c  **** extern uintptr hend;
  10:src/kernel.c  **** static uint64 stID=-1;
  11:src/kernel.c  **** static thread_t running;
  12:src/kernel.c  **** thread_t idle,mainthr,consolethr;
  13:src/kernel.c  **** static time_t timeSliceCounter=0;
  14:src/kernel.c  **** sem_t ioSem;
  15:src/kernel.c  **** sem_t fullPutc;
  16:src/kernel.c  **** int stopputc=0;
  17:src/kernel.c  **** 
  18:src/kernel.c  **** static inline void w_stvec(uint64 stvec) {
  19:src/kernel.c  ****     __asm__ volatile ("csrw stvec, %[stvec]" : : [stvec] "r"(stvec));
  20:src/kernel.c  **** }
  21:src/kernel.c  **** 
  22:src/kernel.c  **** static inline void ms_sstatus(uint64 mask) {
  23:src/kernel.c  ****     __asm__ volatile ("csrs sstatus, %[mask]" : : [mask] "r"(mask));
  24:src/kernel.c  **** }
  25:src/kernel.c  **** 
  26:src/kernel.c  **** static inline void w_sepc(uint64 sepc) {
  27:src/kernel.c  ****     __asm__ volatile ("csrw sepc, %[sepc]" : : [sepc] "r"(sepc));
  28:src/kernel.c  **** }
  29:src/kernel.c  **** 
  30:src/kernel.c  **** static inline uint64 r_sstatus() {
  31:src/kernel.c  ****     uint64 volatile sstatus;
  32:src/kernel.c  ****     __asm__ volatile ("csrr %[sstatus], sstatus" : [sstatus] "=r"(sstatus));
  33:src/kernel.c  ****     return sstatus;
  34:src/kernel.c  **** }
  35:src/kernel.c  **** 
  36:src/kernel.c  **** static inline void w_sstatus(uint64 sstatus) {
  37:src/kernel.c  ****     __asm__ volatile ("csrw sstatus, %[sstatus]" : : [sstatus] "r"(sstatus));
  38:src/kernel.c  **** }
  39:src/kernel.c  **** 
  40:src/kernel.c  **** static inline uint64 r_sepc() {
  41:src/kernel.c  ****     uint64 volatile sepc;
  42:src/kernel.c  ****     __asm__ volatile ("csrr %[sepc], sepc" : [sepc] "=r"(sepc));
  43:src/kernel.c  ****     return sepc;
  44:src/kernel.c  **** }
  45:src/kernel.c  **** static inline void mc_sstatus(uint64 mask)
  46:src/kernel.c  **** {
GAS LISTING /tmp/ccCr5Wow.s 			page 2


  47:src/kernel.c  ****     __asm__ volatile ("csrc sstatus, %[mask]" : : [mask] "r"(mask));
  48:src/kernel.c  **** }
  49:src/kernel.c  **** static inline void ms_sip(uint64 mask)
  50:src/kernel.c  **** {
  51:src/kernel.c  ****     __asm__ volatile ("csrs sip, %[mask]" : : [mask] "r"(mask));
  52:src/kernel.c  **** }
  53:src/kernel.c  **** static inline void mc_sip(uint64 mask)
  54:src/kernel.c  **** {
  55:src/kernel.c  ****     __asm__ volatile ("csrc sip, %[mask]" : : [mask] "r"(mask));
  56:src/kernel.c  **** }
  57:src/kernel.c  **** static inline uint64 r_stvec() {
  58:src/kernel.c  ****     uint64 volatile stvec;
  59:src/kernel.c  ****     __asm__ volatile ("csrr %[stvec], stvec" : [stvec] "=r"(stvec));
  60:src/kernel.c  ****     return stvec;
  61:src/kernel.c  **** }
  62:src/kernel.c  **** enum BitMaskSstatus
  63:src/kernel.c  **** {
  64:src/kernel.c  ****     SSTATUS_SIE = (1 << 1),
  65:src/kernel.c  ****     SSTATUS_SPIE = (1 << 5),
  66:src/kernel.c  ****     SSTATUS_SPP = (1 << 8),
  67:src/kernel.c  **** };
  68:src/kernel.c  **** enum BitMaskSip
  69:src/kernel.c  **** {
  70:src/kernel.c  ****     SIP_SSIP = (1 << 1),
  71:src/kernel.c  ****     SIP_STIP = (1 << 5),
  72:src/kernel.c  ****     SIP_SEIP = (1 << 9),
  73:src/kernel.c  **** };
  74:src/kernel.c  **** void popSppSpie()
  75:src/kernel.c  **** {
  76:src/kernel.c  ****     __asm__ volatile ("csrw sepc, ra");
  77:src/kernel.c  ****     __asm__ volatile ("sret");
  78:src/kernel.c  **** }
  79:src/kernel.c  **** 
  80:src/kernel.c  **** 
  81:src/kernel.c  **** /*extern void* __mem_alloc (size_t size);
  82:src/kernel.c  **** extern int __mem_free (void*);*/
  83:src/kernel.c  **** 
  84:src/kernel.c  **** void __thread_dispatch();
  85:src/kernel.c  **** extern sched scheduler;
  86:src/kernel.c  **** void thread_wrapper() {
  87:src/kernel.c  ****     popSppSpie();
  88:src/kernel.c  ****     running->start_routine(running->arg);
  89:src/kernel.c  ****     running->state=DEAD;
  90:src/kernel.c  ****     thread_dispatch();
  91:src/kernel.c  **** }
  92:src/kernel.c  **** void system_thread_wrapper() {
  93:src/kernel.c  ****     running->start_routine(running->arg);
  94:src/kernel.c  ****     running->state=DEAD;
  95:src/kernel.c  ****     timeSliceCounter=0;
  96:src/kernel.c  ****     __thread_dispatch();
  97:src/kernel.c  **** }
  98:src/kernel.c  **** void printaddr(uintptr a);
  99:src/kernel.c  ****     int __thread_create(
 100:src/kernel.c  ****         thread_t* handle,
 101:src/kernel.c  ****         void(*start_routine)(void*),
 102:src/kernel.c  ****         void* arg
 103:src/kernel.c  ****         ){
GAS LISTING /tmp/ccCr5Wow.s 			page 3


 104:src/kernel.c  ****      if(handle==NULL){
 105:src/kernel.c  **** 
 106:src/kernel.c  ****         handle=&mainthr;
 107:src/kernel.c  ****         (*handle)= __mem_alloc(sizeof(_thread));
 108:src/kernel.c  ****         if((*handle)==NULL) return -1;
 109:src/kernel.c  ****          (*handle)->id = ++stID;
 110:src/kernel.c  ****          (*handle)->timeslice = DEFAULT_TIME_SLICE;
 111:src/kernel.c  ****          (*handle)->state = READY;
 112:src/kernel.c  ****          (*handle)->context=__mem_alloc(sizeof(_pcb));
 113:src/kernel.c  ****          if ((*handle)->context == NULL) return -1;
 114:src/kernel.c  ****          (*handle)->context->ra=(uint64)&thread_wrapper;
 115:src/kernel.c  ****          (*handle)->stack = __mem_alloc(DEFAULT_STACK_SIZE * sizeof(uint64));
 116:src/kernel.c  ****          if ((*handle)->stack == NULL) return -1;
 117:src/kernel.c  ****         // (*handle)->context->sp=0;
 118:src/kernel.c  ****          (*handle)->context->sp = (uint64) (&((*handle)->stack[DEFAULT_STACK_SIZE-1]));
 119:src/kernel.c  ****          (*handle)->state = RUNNING;
 120:src/kernel.c  ****          (*handle)->isPer=0;
 121:src/kernel.c  ****          (*handle)->arg=arg;
 122:src/kernel.c  **** 
 123:src/kernel.c  **** 
 124:src/kernel.c  ****      }
 125:src/kernel.c  ****      else {
 126:src/kernel.c  **** 
 127:src/kernel.c  ****          (*handle)= __mem_alloc(sizeof (_thread));
 128:src/kernel.c  ****          if((*handle)==NULL)return -1;
 129:src/kernel.c  ****          (*handle)->id = ++stID;
 130:src/kernel.c  ****          (*handle)->timeslice = DEFAULT_TIME_SLICE;
 131:src/kernel.c  ****          (*handle)->start_routine = start_routine;
 132:src/kernel.c  ****          (*handle)->stack = __mem_alloc(DEFAULT_STACK_SIZE * sizeof(uint64));
 133:src/kernel.c  ****          if ((*handle)->stack == NULL) return -1;
 134:src/kernel.c  ****          (*handle)->context=__mem_alloc(sizeof(_pcb));
 135:src/kernel.c  ****          if ((*handle)->context == NULL) return -1;
 136:src/kernel.c  ****          if(*handle==consolethr)(*handle)->context->ra = (uint64)&system_thread_wrapper;
 137:src/kernel.c  ****          else (*handle)->context->ra = (uint64)&thread_wrapper;
 138:src/kernel.c  ****          (*handle)->context->sp = (uint64) (&((*handle)->stack[DEFAULT_STACK_SIZE-1]));
 139:src/kernel.c  ****          (*handle)->state = READY;
 140:src/kernel.c  ****          (*handle)->arg=arg;
 141:src/kernel.c  ****          (*handle)->isPer=0;
 142:src/kernel.c  ****          if(handle!=&idle)sc_put(*handle);
 143:src/kernel.c  **** 
 144:src/kernel.c  ****      }
 145:src/kernel.c  ****      return 0;
 146:src/kernel.c  ****  }
 147:src/kernel.c  **** 
 148:src/kernel.c  ****  void contextSwitch(_pcb* old, _pcb* new);
 149:src/kernel.c  ****  void printaddr(uintptr a);
 150:src/kernel.c  **** void putc1(char c);
 151:src/kernel.c  **** int sc_empty();
 152:src/kernel.c  **** int sc_in(uint64 thr);
 153:src/kernel.c  **** void printc(char c);
 154:src/kernel.c  **** void idle_funct();
 155:src/kernel.c  **** void __thread_dispatch(){
 156:src/kernel.c  ****     /*for(sched s=scheduler;s;s=s->next){
 157:src/kernel.c  ****         printaddr(s->data->id);
 158:src/kernel.c  ****         printc('\n');
 159:src/kernel.c  ****     }*/
 160:src/kernel.c  ****     thread_t old = running;
GAS LISTING /tmp/ccCr5Wow.s 			page 4


 161:src/kernel.c  ****     //if(old->id>2)
 162:src/kernel.c  ****     //printc('0'+old->id);printc('-');printc('>');
 163:src/kernel.c  **** 
 164:src/kernel.c  **** 
 165:src/kernel.c  ****     again:
 166:src/kernel.c  ****     running = sc_get();
 167:src/kernel.c  ****     if(running==NULL){
 168:src/kernel.c  ****         //printc('i');
 169:src/kernel.c  ****         running=idle;
 170:src/kernel.c  ****     }else if((running->state)==CREATED){
 171:src/kernel.c  ****         sc_put(running);
 172:src/kernel.c  ****         goto  again;
 173:src/kernel.c  ****     }
 174:src/kernel.c  ****     if (old->state==RUNNING && old!=idle) {
 175:src/kernel.c  ****         old->state=READY;
 176:src/kernel.c  ****         sc_put(old);
 177:src/kernel.c  ****     }
 178:src/kernel.c  ****     //if(running->id>2)
 179:src/kernel.c  ****    //printc('0'+running->id);printc(' ');
 180:src/kernel.c  ****     /*if(old->id==4 && old->state==DEAD){
 181:src/kernel.c  ****         putc1('0'+old->id);putc1('-');putc1('>');putc1('0'+running->id);putc1(' ');
 182:src/kernel.c  ****     }*/
 183:src/kernel.c  ****     running->state=RUNNING;
 184:src/kernel.c  ****     contextSwitch(old->context, running->context);
 185:src/kernel.c  **** 
 186:src/kernel.c  **** }
 187:src/kernel.c  **** void  printc(char c);
 188:src/kernel.c  **** void  idle_funct(){
  13              		.loc 1 188 19
  14              		.cfi_startproc
  15 0000 130101FF 		addi	sp,sp,-16
  16              		.cfi_def_cfa_offset 16
  17 0004 23348100 		sd	s0,8(sp)
  18              		.cfi_offset 8, -8
  19 0008 13040101 		addi	s0,sp,16
  20              		.cfi_def_cfa 8, 0
  21              	.L2:
 189:src/kernel.c  ****     //printc('i');
 190:src/kernel.c  ****     for(;;){
  22              		.loc 1 190 5 discriminator 1
 191:src/kernel.c  ****         //printc('i');
 192:src/kernel.c  ****       /*  timeSliceCounter=0;*/
 193:src/kernel.c  ****         //__thread_dispatch();
 194:src/kernel.c  **** 
 195:src/kernel.c  ****     }
  23              		.loc 1 195 5 discriminator 1
 190:src/kernel.c  ****         //printc('i');
  24              		.loc 1 190 10 discriminator 1
  25 000c 6F000000 		j	.L2
  26              		.cfi_endproc
  27              	.LFE15:
  29              		.align	2
  30              		.globl	popSppSpie
  32              	popSppSpie:
  33              	.LFB10:
  75:src/kernel.c  ****     __asm__ volatile ("csrw sepc, ra");
  34              		.loc 1 75 1
GAS LISTING /tmp/ccCr5Wow.s 			page 5


  35              		.cfi_startproc
  36 0010 130101FF 		addi	sp,sp,-16
  37              		.cfi_def_cfa_offset 16
  38 0014 23348100 		sd	s0,8(sp)
  39              		.cfi_offset 8, -8
  40 0018 13040101 		addi	s0,sp,16
  41              		.cfi_def_cfa 8, 0
  76:src/kernel.c  ****     __asm__ volatile ("sret");
  42              		.loc 1 76 5
  43              	#APP
  44              	# 76 "src/kernel.c" 1
  77:src/kernel.c  **** }
  45              		csrw sepc, ra
  46              	# 0 "" 2
  47              		.loc 1 77 5
  48              	# 77 "src/kernel.c" 1
  78:src/kernel.c  **** 
  49              		sret
  50              	# 0 "" 2
  51              		.loc 1 78 1 is_stmt 0
  52              	#NO_APP
  53 0024 03348100 		ld	s0,8(sp)
  54              		.cfi_restore 8
  55              		.cfi_def_cfa 2, 16
  56 0028 13010101 		addi	sp,sp,16
  57              		.cfi_def_cfa_offset 0
  58 002c 67800000 		jr	ra
  59              		.cfi_endproc
  60              	.LFE10:
  62              		.align	2
  63              		.globl	thread_wrapper
  65              	thread_wrapper:
  66              	.LFB11:
  86:src/kernel.c  ****     popSppSpie();
  67              		.loc 1 86 23 is_stmt 1
  68              		.cfi_startproc
  69 0030 130101FE 		addi	sp,sp,-32
  70              		.cfi_def_cfa_offset 32
  71 0034 233C1100 		sd	ra,24(sp)
  72 0038 23388100 		sd	s0,16(sp)
  73 003c 23349100 		sd	s1,8(sp)
  74              		.cfi_offset 1, -8
  75              		.cfi_offset 8, -16
  76              		.cfi_offset 9, -24
  77 0040 13040102 		addi	s0,sp,32
  78              		.cfi_def_cfa 8, 0
  87:src/kernel.c  ****     running->start_routine(running->arg);
  79              		.loc 1 87 5
  80 0044 97000000 		call	popSppSpie
  80      E7800000 
  81              	.LVL0:
  88:src/kernel.c  ****     running->state=DEAD;
  82              		.loc 1 88 5
  88:src/kernel.c  ****     running->state=DEAD;
  83              		.loc 1 88 12 is_stmt 0
  84 004c 97040000 		lla	s1,running
  84      93840400 
GAS LISTING /tmp/ccCr5Wow.s 			page 6


  85 0054 83B70400 		ld	a5,0(s1)
  86 0058 03B70702 		ld	a4,32(a5)
  88:src/kernel.c  ****     running->state=DEAD;
  87              		.loc 1 88 5
  88 005c 03B58702 		ld	a0,40(a5)
  89 0060 E7000700 		jalr	a4
  90              	.LVL1:
  89:src/kernel.c  ****     thread_dispatch();
  91              		.loc 1 89 5 is_stmt 1
  89:src/kernel.c  ****     thread_dispatch();
  92              		.loc 1 89 12 is_stmt 0
  93 0064 83B70400 		ld	a5,0(s1)
  89:src/kernel.c  ****     thread_dispatch();
  94              		.loc 1 89 19
  95 0068 13075000 		li	a4,5
  96 006c 23ACE700 		sw	a4,24(a5)
  90:src/kernel.c  **** }
  97              		.loc 1 90 5 is_stmt 1
  98 0070 97000000 		call	thread_dispatch
  98      E7800000 
  99              	.LVL2:
  91:src/kernel.c  **** void system_thread_wrapper() {
 100              		.loc 1 91 1 is_stmt 0
 101 0078 83308101 		ld	ra,24(sp)
 102              		.cfi_restore 1
 103 007c 03340101 		ld	s0,16(sp)
 104              		.cfi_restore 8
 105              		.cfi_def_cfa 2, 32
 106 0080 83348100 		ld	s1,8(sp)
 107              		.cfi_restore 9
 108 0084 13010102 		addi	sp,sp,32
 109              		.cfi_def_cfa_offset 0
 110 0088 67800000 		jr	ra
 111              		.cfi_endproc
 112              	.LFE11:
 114              		.align	2
 115              		.globl	__thread_create
 117              	__thread_create:
 118              	.LFB13:
 103:src/kernel.c  ****      if(handle==NULL){
 119              		.loc 1 103 10 is_stmt 1
 120              		.cfi_startproc
 121              	.LVL3:
 122 008c 130101FD 		addi	sp,sp,-48
 123              		.cfi_def_cfa_offset 48
 124 0090 23341102 		sd	ra,40(sp)
 125 0094 23308102 		sd	s0,32(sp)
 126 0098 233C9100 		sd	s1,24(sp)
 127 009c 23382101 		sd	s2,16(sp)
 128 00a0 23343101 		sd	s3,8(sp)
 129              		.cfi_offset 1, -8
 130              		.cfi_offset 8, -16
 131              		.cfi_offset 9, -24
 132              		.cfi_offset 18, -32
 133              		.cfi_offset 19, -40
 134 00a4 13040103 		addi	s0,sp,48
 135              		.cfi_def_cfa 8, 0
GAS LISTING /tmp/ccCr5Wow.s 			page 7


 136 00a8 13090600 		mv	s2,a2
 104:src/kernel.c  **** 
 137              		.loc 1 104 6
 104:src/kernel.c  **** 
 138              		.loc 1 104 8 is_stmt 0
 139 00ac 63080510 		beqz	a0,.L21
 140 00b0 93040500 		mv	s1,a0
 141 00b4 93890500 		mv	s3,a1
 127:src/kernel.c  ****          if((*handle)==NULL)return -1;
 142              		.loc 1 127 10 is_stmt 1
 127:src/kernel.c  ****          if((*handle)==NULL)return -1;
 143              		.loc 1 127 21 is_stmt 0
 144 00b8 13050005 		li	a0,80
 145              	.LVL4:
 146 00bc 97000000 		call	__mem_alloc
 146      E7800000 
 147              	.LVL5:
 127:src/kernel.c  ****          if((*handle)==NULL)return -1;
 148              		.loc 1 127 19
 149 00c4 23B0A400 		sd	a0,0(s1)
 128:src/kernel.c  ****          (*handle)->id = ++stID;
 150              		.loc 1 128 10 is_stmt 1
 128:src/kernel.c  ****          (*handle)->id = ++stID;
 151              		.loc 1 128 12 is_stmt 0
 152 00c8 6300051E 		beqz	a0,.L16
 129:src/kernel.c  ****          (*handle)->timeslice = DEFAULT_TIME_SLICE;
 153              		.loc 1 129 10 is_stmt 1
 129:src/kernel.c  ****          (*handle)->timeslice = DEFAULT_TIME_SLICE;
 154              		.loc 1 129 26 is_stmt 0
 155 00cc 17070000 		lla	a4,stID
 155      13070700 
 156 00d4 83370700 		ld	a5,0(a4)
 157 00d8 93871700 		addi	a5,a5,1
 129:src/kernel.c  ****          (*handle)->timeslice = DEFAULT_TIME_SLICE;
 158              		.loc 1 129 24
 159 00dc 2330F700 		sd	a5,0(a4)
 160 00e0 2330F500 		sd	a5,0(a0)
 130:src/kernel.c  ****          (*handle)->start_routine = start_routine;
 161              		.loc 1 130 10 is_stmt 1
 130:src/kernel.c  ****          (*handle)->start_routine = start_routine;
 162              		.loc 1 130 11 is_stmt 0
 163 00e4 83B70400 		ld	a5,0(s1)
 130:src/kernel.c  ****          (*handle)->start_routine = start_routine;
 164              		.loc 1 130 31
 165 00e8 13072000 		li	a4,2
 166 00ec 23B8E702 		sd	a4,48(a5)
 131:src/kernel.c  ****          (*handle)->stack = __mem_alloc(DEFAULT_STACK_SIZE * sizeof(uint64));
 167              		.loc 1 131 10 is_stmt 1
 131:src/kernel.c  ****          (*handle)->stack = __mem_alloc(DEFAULT_STACK_SIZE * sizeof(uint64));
 168              		.loc 1 131 11 is_stmt 0
 169 00f0 83B70400 		ld	a5,0(s1)
 131:src/kernel.c  ****          (*handle)->stack = __mem_alloc(DEFAULT_STACK_SIZE * sizeof(uint64));
 170              		.loc 1 131 35
 171 00f4 23B03703 		sd	s3,32(a5)
 132:src/kernel.c  ****          if ((*handle)->stack == NULL) return -1;
 172              		.loc 1 132 10 is_stmt 1
 132:src/kernel.c  ****          if ((*handle)->stack == NULL) return -1;
GAS LISTING /tmp/ccCr5Wow.s 			page 8


 173              		.loc 1 132 11 is_stmt 0
 174 00f8 83B90400 		ld	s3,0(s1)
 175              	.LVL6:
 132:src/kernel.c  ****          if ((*handle)->stack == NULL) return -1;
 176              		.loc 1 132 29
 177 00fc 37850000 		li	a0,32768
 178 0100 97000000 		call	__mem_alloc
 178      E7800000 
 179              	.LVL7:
 132:src/kernel.c  ****          if ((*handle)->stack == NULL) return -1;
 180              		.loc 1 132 27
 181 0108 23B8A900 		sd	a0,16(s3)
 133:src/kernel.c  ****          (*handle)->context=__mem_alloc(sizeof(_pcb));
 182              		.loc 1 133 10 is_stmt 1
 133:src/kernel.c  ****          (*handle)->context=__mem_alloc(sizeof(_pcb));
 183              		.loc 1 133 15 is_stmt 0
 184 010c 83B90400 		ld	s3,0(s1)
 133:src/kernel.c  ****          (*handle)->context=__mem_alloc(sizeof(_pcb));
 185              		.loc 1 133 23
 186 0110 83B70901 		ld	a5,16(s3)
 133:src/kernel.c  ****          (*handle)->context=__mem_alloc(sizeof(_pcb));
 187              		.loc 1 133 13
 188 0114 638E0718 		beqz	a5,.L17
 134:src/kernel.c  ****          if ((*handle)->context == NULL) return -1;
 189              		.loc 1 134 10 is_stmt 1
 134:src/kernel.c  ****          if ((*handle)->context == NULL) return -1;
 190              		.loc 1 134 29 is_stmt 0
 191 0118 13050001 		li	a0,16
 192 011c 97000000 		call	__mem_alloc
 192      E7800000 
 193              	.LVL8:
 134:src/kernel.c  ****          if ((*handle)->context == NULL) return -1;
 194              		.loc 1 134 28
 195 0124 23B4A900 		sd	a0,8(s3)
 135:src/kernel.c  ****          if(*handle==consolethr)(*handle)->context->ra = (uint64)&system_thread_wrapper;
 196              		.loc 1 135 10 is_stmt 1
 135:src/kernel.c  ****          if(*handle==consolethr)(*handle)->context->ra = (uint64)&system_thread_wrapper;
 197              		.loc 1 135 15 is_stmt 0
 198 0128 03B70400 		ld	a4,0(s1)
 135:src/kernel.c  ****          if(*handle==consolethr)(*handle)->context->ra = (uint64)&system_thread_wrapper;
 199              		.loc 1 135 23
 200 012c 83378700 		ld	a5,8(a4)
 135:src/kernel.c  ****          if(*handle==consolethr)(*handle)->context->ra = (uint64)&system_thread_wrapper;
 201              		.loc 1 135 13
 202 0130 63840718 		beqz	a5,.L18
 136:src/kernel.c  ****          else (*handle)->context->ra = (uint64)&thread_wrapper;
 203              		.loc 1 136 10 is_stmt 1
 136:src/kernel.c  ****          else (*handle)->context->ra = (uint64)&thread_wrapper;
 204              		.loc 1 136 20 is_stmt 0
 205 0134 97060000 		ld	a3,consolethr
 205      83B60600 
 136:src/kernel.c  ****          else (*handle)->context->ra = (uint64)&thread_wrapper;
 206              		.loc 1 136 12
 207 013c 6302D714 		beq	a4,a3,.L22
 137:src/kernel.c  ****          (*handle)->context->sp = (uint64) (&((*handle)->stack[DEFAULT_STACK_SIZE-1]));
 208              		.loc 1 137 15 is_stmt 1
 137:src/kernel.c  ****          (*handle)->context->sp = (uint64) (&((*handle)->stack[DEFAULT_STACK_SIZE-1]));
GAS LISTING /tmp/ccCr5Wow.s 			page 9


 209              		.loc 1 137 40 is_stmt 0
 210 0140 17070000 		lla	a4,thread_wrapper
 210      13070700 
 137:src/kernel.c  ****          (*handle)->context->sp = (uint64) (&((*handle)->stack[DEFAULT_STACK_SIZE-1]));
 211              		.loc 1 137 38
 212 0148 23B0E700 		sd	a4,0(a5)
 213              	.L12:
 138:src/kernel.c  ****          (*handle)->state = READY;
 214              		.loc 1 138 10 is_stmt 1
 138:src/kernel.c  ****          (*handle)->state = READY;
 215              		.loc 1 138 48 is_stmt 0
 216 014c 83B60400 		ld	a3,0(s1)
 138:src/kernel.c  ****          (*handle)->state = READY;
 217              		.loc 1 138 56
 218 0150 83B70601 		ld	a5,16(a3)
 138:src/kernel.c  ****          (*handle)->state = READY;
 219              		.loc 1 138 45
 220 0154 37870000 		li	a4,32768
 221 0158 130787FF 		addi	a4,a4,-8
 222 015c B387E700 		add	a5,a5,a4
 138:src/kernel.c  ****          (*handle)->state = READY;
 223              		.loc 1 138 19
 224 0160 03B78600 		ld	a4,8(a3)
 138:src/kernel.c  ****          (*handle)->state = READY;
 225              		.loc 1 138 33
 226 0164 2334F700 		sd	a5,8(a4)
 139:src/kernel.c  ****          (*handle)->arg=arg;
 227              		.loc 1 139 10 is_stmt 1
 139:src/kernel.c  ****          (*handle)->arg=arg;
 228              		.loc 1 139 11 is_stmt 0
 229 0168 83B70400 		ld	a5,0(s1)
 139:src/kernel.c  ****          (*handle)->arg=arg;
 230              		.loc 1 139 27
 231 016c 13071000 		li	a4,1
 232 0170 23ACE700 		sw	a4,24(a5)
 140:src/kernel.c  ****          (*handle)->isPer=0;
 233              		.loc 1 140 10 is_stmt 1
 140:src/kernel.c  ****          (*handle)->isPer=0;
 234              		.loc 1 140 11 is_stmt 0
 235 0174 83B70400 		ld	a5,0(s1)
 140:src/kernel.c  ****          (*handle)->isPer=0;
 236              		.loc 1 140 24
 237 0178 23B42703 		sd	s2,40(a5)
 141:src/kernel.c  ****          if(handle!=&idle)sc_put(*handle);
 238              		.loc 1 141 10 is_stmt 1
 141:src/kernel.c  ****          if(handle!=&idle)sc_put(*handle);
 239              		.loc 1 141 11 is_stmt 0
 240 017c 83B70400 		ld	a5,0(s1)
 141:src/kernel.c  ****          if(handle!=&idle)sc_put(*handle);
 241              		.loc 1 141 26
 242 0180 23B40704 		sd	zero,72(a5)
 142:src/kernel.c  **** 
 243              		.loc 1 142 10 is_stmt 1
 142:src/kernel.c  **** 
 244              		.loc 1 142 12 is_stmt 0
 245 0184 97070000 		lla	a5,idle
 245      93870700 
GAS LISTING /tmp/ccCr5Wow.s 			page 10


 246 018c 638AF412 		beq	s1,a5,.L19
 142:src/kernel.c  **** 
 247              		.loc 1 142 27 is_stmt 1 discriminator 1
 248 0190 03B50400 		ld	a0,0(s1)
 249 0194 97000000 		call	sc_put
 249      E7800000 
 250              	.LVL9:
 145:src/kernel.c  ****  }
 251              		.loc 1 145 13 is_stmt 0 discriminator 1
 252 019c 13050000 		li	a0,0
 253              	.LVL10:
 254              	.L10:
 146:src/kernel.c  **** 
 255              		.loc 1 146 2
 256 01a0 83308102 		ld	ra,40(sp)
 257              		.cfi_remember_state
 258              		.cfi_restore 1
 259 01a4 03340102 		ld	s0,32(sp)
 260              		.cfi_restore 8
 261              		.cfi_def_cfa 2, 48
 262 01a8 83348101 		ld	s1,24(sp)
 263              		.cfi_restore 9
 264 01ac 03390101 		ld	s2,16(sp)
 265              		.cfi_restore 18
 266              	.LVL11:
 267 01b0 83398100 		ld	s3,8(sp)
 268              		.cfi_restore 19
 269 01b4 13010103 		addi	sp,sp,48
 270              		.cfi_def_cfa_offset 0
 271 01b8 67800000 		jr	ra
 272              	.LVL12:
 273              	.L21:
 274              		.cfi_restore_state
 106:src/kernel.c  ****         (*handle)= __mem_alloc(sizeof(_thread));
 275              		.loc 1 106 9 is_stmt 1
 107:src/kernel.c  ****         if((*handle)==NULL) return -1;
 276              		.loc 1 107 9
 107:src/kernel.c  ****         if((*handle)==NULL) return -1;
 277              		.loc 1 107 20 is_stmt 0
 278 01bc 13050005 		li	a0,80
 279 01c0 97000000 		call	__mem_alloc
 279      E7800000 
 280              	.LVL13:
 107:src/kernel.c  ****         if((*handle)==NULL) return -1;
 281              		.loc 1 107 18
 282 01c8 97070000 		sd	a0,mainthr,a5
 282      23B0A700 
 108:src/kernel.c  ****          (*handle)->id = ++stID;
 283              		.loc 1 108 9 is_stmt 1
 108:src/kernel.c  ****          (*handle)->id = ++stID;
 284              		.loc 1 108 11 is_stmt 0
 285 01d0 6300050C 		beqz	a0,.L13
 109:src/kernel.c  ****          (*handle)->timeslice = DEFAULT_TIME_SLICE;
 286              		.loc 1 109 10 is_stmt 1
 109:src/kernel.c  ****          (*handle)->timeslice = DEFAULT_TIME_SLICE;
 287              		.loc 1 109 26 is_stmt 0
 288 01d4 17070000 		lla	a4,stID
GAS LISTING /tmp/ccCr5Wow.s 			page 11


 288      13070700 
 289 01dc 83370700 		ld	a5,0(a4)
 290 01e0 93871700 		addi	a5,a5,1
 109:src/kernel.c  ****          (*handle)->timeslice = DEFAULT_TIME_SLICE;
 291              		.loc 1 109 24
 292 01e4 2330F700 		sd	a5,0(a4)
 293 01e8 2330F500 		sd	a5,0(a0)
 110:src/kernel.c  ****          (*handle)->state = READY;
 294              		.loc 1 110 10 is_stmt 1
 110:src/kernel.c  ****          (*handle)->state = READY;
 295              		.loc 1 110 11 is_stmt 0
 296 01ec 97090000 		lla	s3,mainthr
 296      93890900 
 297 01f4 83B40900 		ld	s1,0(s3)
 110:src/kernel.c  ****          (*handle)->state = READY;
 298              		.loc 1 110 31
 299 01f8 93072000 		li	a5,2
 300 01fc 23B8F402 		sd	a5,48(s1)
 111:src/kernel.c  ****          (*handle)->context=__mem_alloc(sizeof(_pcb));
 301              		.loc 1 111 10 is_stmt 1
 111:src/kernel.c  ****          (*handle)->context=__mem_alloc(sizeof(_pcb));
 302              		.loc 1 111 27 is_stmt 0
 303 0200 93071000 		li	a5,1
 304 0204 23ACF400 		sw	a5,24(s1)
 112:src/kernel.c  ****          if ((*handle)->context == NULL) return -1;
 305              		.loc 1 112 10 is_stmt 1
 112:src/kernel.c  ****          if ((*handle)->context == NULL) return -1;
 306              		.loc 1 112 29 is_stmt 0
 307 0208 13050001 		li	a0,16
 308 020c 97000000 		call	__mem_alloc
 308      E7800000 
 309              	.LVL14:
 112:src/kernel.c  ****          if ((*handle)->context == NULL) return -1;
 310              		.loc 1 112 28
 311 0214 23B4A400 		sd	a0,8(s1)
 113:src/kernel.c  ****          (*handle)->context->ra=(uint64)&thread_wrapper;
 312              		.loc 1 113 10 is_stmt 1
 113:src/kernel.c  ****          (*handle)->context->ra=(uint64)&thread_wrapper;
 313              		.loc 1 113 15 is_stmt 0
 314 0218 83B70900 		ld	a5,0(s3)
 113:src/kernel.c  ****          (*handle)->context->ra=(uint64)&thread_wrapper;
 315              		.loc 1 113 23
 316 021c 83B78700 		ld	a5,8(a5)
 113:src/kernel.c  ****          (*handle)->context->ra=(uint64)&thread_wrapper;
 317              		.loc 1 113 13
 318 0220 638C0706 		beqz	a5,.L14
 114:src/kernel.c  ****          (*handle)->stack = __mem_alloc(DEFAULT_STACK_SIZE * sizeof(uint64));
 319              		.loc 1 114 10 is_stmt 1
 114:src/kernel.c  ****          (*handle)->stack = __mem_alloc(DEFAULT_STACK_SIZE * sizeof(uint64));
 320              		.loc 1 114 33 is_stmt 0
 321 0224 17070000 		lla	a4,thread_wrapper
 321      13070700 
 114:src/kernel.c  ****          (*handle)->stack = __mem_alloc(DEFAULT_STACK_SIZE * sizeof(uint64));
 322              		.loc 1 114 32
 323 022c 23B0E700 		sd	a4,0(a5)
 115:src/kernel.c  ****          if ((*handle)->stack == NULL) return -1;
 324              		.loc 1 115 10 is_stmt 1
GAS LISTING /tmp/ccCr5Wow.s 			page 12


 115:src/kernel.c  ****          if ((*handle)->stack == NULL) return -1;
 325              		.loc 1 115 11 is_stmt 0
 326 0230 93840900 		mv	s1,s3
 327 0234 83B90900 		ld	s3,0(s3)
 115:src/kernel.c  ****          if ((*handle)->stack == NULL) return -1;
 328              		.loc 1 115 29
 329 0238 37850000 		li	a0,32768
 330 023c 97000000 		call	__mem_alloc
 330      E7800000 
 331              	.LVL15:
 115:src/kernel.c  ****          if ((*handle)->stack == NULL) return -1;
 332              		.loc 1 115 27
 333 0244 23B8A900 		sd	a0,16(s3)
 116:src/kernel.c  ****         // (*handle)->context->sp=0;
 334              		.loc 1 116 10 is_stmt 1
 116:src/kernel.c  ****         // (*handle)->context->sp=0;
 335              		.loc 1 116 15 is_stmt 0
 336 0248 83B70400 		ld	a5,0(s1)
 116:src/kernel.c  ****         // (*handle)->context->sp=0;
 337              		.loc 1 116 23
 338 024c 03B70701 		ld	a4,16(a5)
 116:src/kernel.c  ****         // (*handle)->context->sp=0;
 339              		.loc 1 116 13
 340 0250 63080704 		beqz	a4,.L15
 118:src/kernel.c  ****          (*handle)->state = RUNNING;
 341              		.loc 1 118 10 is_stmt 1
 118:src/kernel.c  ****          (*handle)->state = RUNNING;
 342              		.loc 1 118 45 is_stmt 0
 343 0254 B7860000 		li	a3,32768
 344 0258 938686FF 		addi	a3,a3,-8
 345 025c 3307D700 		add	a4,a4,a3
 118:src/kernel.c  ****          (*handle)->state = RUNNING;
 346              		.loc 1 118 19
 347 0260 83B68700 		ld	a3,8(a5)
 118:src/kernel.c  ****          (*handle)->state = RUNNING;
 348              		.loc 1 118 33
 349 0264 23B4E600 		sd	a4,8(a3)
 119:src/kernel.c  ****          (*handle)->isPer=0;
 350              		.loc 1 119 10 is_stmt 1
 119:src/kernel.c  ****          (*handle)->isPer=0;
 351              		.loc 1 119 27 is_stmt 0
 352 0268 13072000 		li	a4,2
 353 026c 23ACE700 		sw	a4,24(a5)
 120:src/kernel.c  ****          (*handle)->arg=arg;
 354              		.loc 1 120 10 is_stmt 1
 120:src/kernel.c  ****          (*handle)->arg=arg;
 355              		.loc 1 120 26 is_stmt 0
 356 0270 23B40704 		sd	zero,72(a5)
 121:src/kernel.c  **** 
 357              		.loc 1 121 10 is_stmt 1
 121:src/kernel.c  **** 
 358              		.loc 1 121 24 is_stmt 0
 359 0274 23B42703 		sd	s2,40(a5)
 145:src/kernel.c  ****  }
 360              		.loc 1 145 13
 361 0278 13050000 		li	a0,0
 362 027c 6FF05FF2 		j	.L10
GAS LISTING /tmp/ccCr5Wow.s 			page 13


 363              	.LVL16:
 364              	.L22:
 136:src/kernel.c  ****          else (*handle)->context->ra = (uint64)&thread_wrapper;
 365              		.loc 1 136 33 is_stmt 1 discriminator 1
 136:src/kernel.c  ****          else (*handle)->context->ra = (uint64)&thread_wrapper;
 366              		.loc 1 136 58 is_stmt 0 discriminator 1
 367 0280 17070000 		lla	a4,system_thread_wrapper
 367      13070700 
 136:src/kernel.c  ****          else (*handle)->context->ra = (uint64)&thread_wrapper;
 368              		.loc 1 136 56 discriminator 1
 369 0288 23B0E700 		sd	a4,0(a5)
 370 028c 6FF01FEC 		j	.L12
 371              	.LVL17:
 372              	.L13:
 108:src/kernel.c  ****          (*handle)->id = ++stID;
 373              		.loc 1 108 36
 374 0290 1305F0FF 		li	a0,-1
 375 0294 6FF0DFF0 		j	.L10
 376              	.L14:
 113:src/kernel.c  ****          (*handle)->context->ra=(uint64)&thread_wrapper;
 377              		.loc 1 113 49
 378 0298 1305F0FF 		li	a0,-1
 379 029c 6FF05FF0 		j	.L10
 380              	.L15:
 116:src/kernel.c  ****         // (*handle)->context->sp=0;
 381              		.loc 1 116 47
 382 02a0 1305F0FF 		li	a0,-1
 383 02a4 6FF0DFEF 		j	.L10
 384              	.LVL18:
 385              	.L16:
 128:src/kernel.c  ****          (*handle)->id = ++stID;
 386              		.loc 1 128 36
 387 02a8 1305F0FF 		li	a0,-1
 388 02ac 6FF05FEF 		j	.L10
 389              	.LVL19:
 390              	.L17:
 133:src/kernel.c  ****          (*handle)->context=__mem_alloc(sizeof(_pcb));
 391              		.loc 1 133 47
 392 02b0 1305F0FF 		li	a0,-1
 393 02b4 6FF0DFEE 		j	.L10
 394              	.L18:
 135:src/kernel.c  ****          if(*handle==consolethr)(*handle)->context->ra = (uint64)&system_thread_wrapper;
 395              		.loc 1 135 49
 396 02b8 1305F0FF 		li	a0,-1
 397 02bc 6FF05FEE 		j	.L10
 398              	.L19:
 145:src/kernel.c  ****  }
 399              		.loc 1 145 13
 400 02c0 13050000 		li	a0,0
 401 02c4 6FF0DFED 		j	.L10
 402              		.cfi_endproc
 403              	.LFE13:
 405              		.align	2
 406              		.globl	__thread_dispatch
 408              	__thread_dispatch:
 409              	.LFB14:
 155:src/kernel.c  ****     /*for(sched s=scheduler;s;s=s->next){
GAS LISTING /tmp/ccCr5Wow.s 			page 14


 410              		.loc 1 155 25 is_stmt 1
 411              		.cfi_startproc
 412 02c8 130101FE 		addi	sp,sp,-32
 413              		.cfi_def_cfa_offset 32
 414 02cc 233C1100 		sd	ra,24(sp)
 415 02d0 23388100 		sd	s0,16(sp)
 416 02d4 23349100 		sd	s1,8(sp)
 417              		.cfi_offset 1, -8
 418              		.cfi_offset 8, -16
 419              		.cfi_offset 9, -24
 420 02d8 13040102 		addi	s0,sp,32
 421              		.cfi_def_cfa 8, 0
 160:src/kernel.c  ****     //if(old->id>2)
 422              		.loc 1 160 5
 160:src/kernel.c  ****     //if(old->id>2)
 423              		.loc 1 160 14 is_stmt 0
 424 02dc 97040000 		ld	s1,running
 424      83B40400 
 425              	.LVL20:
 426              	.L24:
 166:src/kernel.c  ****     if(running==NULL){
 427              		.loc 1 166 5 is_stmt 1
 166:src/kernel.c  ****     if(running==NULL){
 428              		.loc 1 166 15 is_stmt 0
 429 02e4 97000000 		call	sc_get
 429      E7800000 
 430              	.LVL21:
 166:src/kernel.c  ****     if(running==NULL){
 431              		.loc 1 166 13
 432 02ec 97070000 		sd	a0,running,a5
 432      23B0A700 
 167:src/kernel.c  ****         //printc('i');
 433              		.loc 1 167 5 is_stmt 1
 167:src/kernel.c  ****         //printc('i');
 434              		.loc 1 167 7 is_stmt 0
 435 02f4 630C0500 		beqz	a0,.L29
 170:src/kernel.c  ****         sc_put(running);
 436              		.loc 1 170 11 is_stmt 1
 170:src/kernel.c  ****         sc_put(running);
 437              		.loc 1 170 22 is_stmt 0
 438 02f8 83278501 		lw	a5,24(a0)
 170:src/kernel.c  ****         sc_put(running);
 439              		.loc 1 170 13
 440 02fc 63900702 		bnez	a5,.L26
 171:src/kernel.c  ****         goto  again;
 441              		.loc 1 171 9 is_stmt 1
 442 0300 97000000 		call	sc_put
 442      E7800000 
 443              	.LVL22:
 172:src/kernel.c  ****     }
 444              		.loc 1 172 9
 445 0308 6FF0DFFD 		j	.L24
 446              	.L29:
 169:src/kernel.c  ****     }else if((running->state)==CREATED){
 447              		.loc 1 169 9
 169:src/kernel.c  ****     }else if((running->state)==CREATED){
 448              		.loc 1 169 16 is_stmt 0
GAS LISTING /tmp/ccCr5Wow.s 			page 15


 449 030c 97070000 		ld	a5,idle
 449      83B70700 
 450 0314 17070000 		sd	a5,running,a4
 450      2330F700 
 451              	.L26:
 174:src/kernel.c  ****         old->state=READY;
 452              		.loc 1 174 5 is_stmt 1
 174:src/kernel.c  ****         old->state=READY;
 453              		.loc 1 174 12 is_stmt 0
 454 031c 03A78401 		lw	a4,24(s1)
 174:src/kernel.c  ****         old->state=READY;
 455              		.loc 1 174 8
 456 0320 93072000 		li	a5,2
 457 0324 630CF702 		beq	a4,a5,.L30
 458              	.L27:
 183:src/kernel.c  ****     contextSwitch(old->context, running->context);
 459              		.loc 1 183 5 is_stmt 1
 183:src/kernel.c  ****     contextSwitch(old->context, running->context);
 460              		.loc 1 183 12 is_stmt 0
 461 0328 97070000 		ld	a5,running
 461      83B70700 
 183:src/kernel.c  ****     contextSwitch(old->context, running->context);
 462              		.loc 1 183 19
 463 0330 13072000 		li	a4,2
 464 0334 23ACE700 		sw	a4,24(a5)
 184:src/kernel.c  **** 
 465              		.loc 1 184 5 is_stmt 1
 466 0338 83B58700 		ld	a1,8(a5)
 467 033c 03B58400 		ld	a0,8(s1)
 468 0340 97000000 		call	contextSwitch
 468      E7800000 
 469              	.LVL23:
 186:src/kernel.c  **** void  printc(char c);
 470              		.loc 1 186 1 is_stmt 0
 471 0348 83308101 		ld	ra,24(sp)
 472              		.cfi_remember_state
 473              		.cfi_restore 1
 474 034c 03340101 		ld	s0,16(sp)
 475              		.cfi_restore 8
 476              		.cfi_def_cfa 2, 32
 477 0350 83348100 		ld	s1,8(sp)
 478              		.cfi_restore 9
 479              	.LVL24:
 480 0354 13010102 		addi	sp,sp,32
 481              		.cfi_def_cfa_offset 0
 482 0358 67800000 		jr	ra
 483              	.LVL25:
 484              	.L30:
 485              		.cfi_restore_state
 174:src/kernel.c  ****         old->state=READY;
 486              		.loc 1 174 35 discriminator 1
 487 035c 97070000 		ld	a5,idle
 487      83B70700 
 174:src/kernel.c  ****         old->state=READY;
 488              		.loc 1 174 29 discriminator 1
 489 0364 E38297FC 		beq	a5,s1,.L27
 175:src/kernel.c  ****         sc_put(old);
GAS LISTING /tmp/ccCr5Wow.s 			page 16


 490              		.loc 1 175 9 is_stmt 1
 175:src/kernel.c  ****         sc_put(old);
 491              		.loc 1 175 19 is_stmt 0
 492 0368 93071000 		li	a5,1
 493 036c 23ACF400 		sw	a5,24(s1)
 176:src/kernel.c  ****     }
 494              		.loc 1 176 9 is_stmt 1
 495 0370 13850400 		mv	a0,s1
 496 0374 97000000 		call	sc_put
 496      E7800000 
 497              	.LVL26:
 498 037c 6FF0DFFA 		j	.L27
 499              		.cfi_endproc
 500              	.LFE14:
 502              		.align	2
 503              		.globl	system_thread_wrapper
 505              	system_thread_wrapper:
 506              	.LFB12:
  92:src/kernel.c  ****     running->start_routine(running->arg);
 507              		.loc 1 92 30
 508              		.cfi_startproc
 509 0380 130101FE 		addi	sp,sp,-32
 510              		.cfi_def_cfa_offset 32
 511 0384 233C1100 		sd	ra,24(sp)
 512 0388 23388100 		sd	s0,16(sp)
 513 038c 23349100 		sd	s1,8(sp)
 514              		.cfi_offset 1, -8
 515              		.cfi_offset 8, -16
 516              		.cfi_offset 9, -24
 517 0390 13040102 		addi	s0,sp,32
 518              		.cfi_def_cfa 8, 0
  93:src/kernel.c  ****     running->state=DEAD;
 519              		.loc 1 93 5
  93:src/kernel.c  ****     running->state=DEAD;
 520              		.loc 1 93 12 is_stmt 0
 521 0394 97040000 		lla	s1,running
 521      93840400 
 522 039c 83B70400 		ld	a5,0(s1)
 523 03a0 03B70702 		ld	a4,32(a5)
  93:src/kernel.c  ****     running->state=DEAD;
 524              		.loc 1 93 5
 525 03a4 03B58702 		ld	a0,40(a5)
 526 03a8 E7000700 		jalr	a4
 527              	.LVL27:
  94:src/kernel.c  ****     timeSliceCounter=0;
 528              		.loc 1 94 5 is_stmt 1
  94:src/kernel.c  ****     timeSliceCounter=0;
 529              		.loc 1 94 12 is_stmt 0
 530 03ac 83B70400 		ld	a5,0(s1)
  94:src/kernel.c  ****     timeSliceCounter=0;
 531              		.loc 1 94 19
 532 03b0 13075000 		li	a4,5
 533 03b4 23ACE700 		sw	a4,24(a5)
  95:src/kernel.c  ****     __thread_dispatch();
 534              		.loc 1 95 5 is_stmt 1
  95:src/kernel.c  ****     __thread_dispatch();
 535              		.loc 1 95 21 is_stmt 0
GAS LISTING /tmp/ccCr5Wow.s 			page 17


 536 03b8 97070000 		sd	zero,timeSliceCounter,a5
 536      23B00700 
  96:src/kernel.c  **** }
 537              		.loc 1 96 5 is_stmt 1
 538 03c0 97000000 		call	__thread_dispatch
 538      E7800000 
 539              	.LVL28:
  97:src/kernel.c  **** void printaddr(uintptr a);
 540              		.loc 1 97 1 is_stmt 0
 541 03c8 83308101 		ld	ra,24(sp)
 542              		.cfi_restore 1
 543 03cc 03340101 		ld	s0,16(sp)
 544              		.cfi_restore 8
 545              		.cfi_def_cfa 2, 32
 546 03d0 83348100 		ld	s1,8(sp)
 547              		.cfi_restore 9
 548 03d4 13010102 		addi	sp,sp,32
 549              		.cfi_def_cfa_offset 0
 550 03d8 67800000 		jr	ra
 551              		.cfi_endproc
 552              	.LFE12:
 554              		.align	2
 555              		.globl	memset
 557              	memset:
 558              	.LFB16:
 196:src/kernel.c  **** }
 197:src/kernel.c  **** int sem_open (
 198:src/kernel.c  ****         sem_t* handle,
 199:src/kernel.c  ****         unsigned init
 200:src/kernel.c  **** );
 201:src/kernel.c  **** extern int thread_create (
 202:src/kernel.c  ****         thread_t* handle,
 203:src/kernel.c  ****         void(*start_routine)(void*),
 204:src/kernel.c  ****         void* arg
 205:src/kernel.c  **** );
 206:src/kernel.c  **** extern int thread_exit ();
 207:src/kernel.c  **** extern void thread_dispatch ();
 208:src/kernel.c  **** extern int sem_close (sem_t handle);
 209:src/kernel.c  **** extern int sem_wait (sem_t id);
 210:src/kernel.c  **** extern int sem_signal (sem_t id);
 211:src/kernel.c  **** extern int time_sleep (time_t);
 212:src/kernel.c  **** extern char getc ();
 213:src/kernel.c  **** extern void putc (char);
 214:src/kernel.c  **** extern void sc_put(thread_t thr);
 215:src/kernel.c  **** extern thread_t sc_get();
 216:src/kernel.c  **** extern int sc_empty();
 217:src/kernel.c  **** void *memset(void *ptr, int b, size_t n) {
 559              		.loc 1 217 42 is_stmt 1
 560              		.cfi_startproc
 561              	.LVL29:
 562 03dc 130101FF 		addi	sp,sp,-16
 563              		.cfi_def_cfa_offset 16
 564 03e0 23348100 		sd	s0,8(sp)
 565              		.cfi_offset 8, -8
 566 03e4 13040101 		addi	s0,sp,16
 567              		.cfi_def_cfa 8, 0
 218:src/kernel.c  ****     char *t = ptr;
GAS LISTING /tmp/ccCr5Wow.s 			page 18


 568              		.loc 1 218 5
 569              	.LVL30:
 219:src/kernel.c  ****     for (int i = 0; i < n; t[i++] = b);
 570              		.loc 1 219 5
 571              	.LBB45:
 572              		.loc 1 219 10
 573              		.loc 1 219 14 is_stmt 0
 574 03e8 93070000 		li	a5,0
 575              	.LVL31:
 576              	.L34:
 577              		.loc 1 219 21 is_stmt 1 discriminator 1
 578              		.loc 1 219 23 is_stmt 0 discriminator 1
 579 03ec 13870700 		mv	a4,a5
 580              		.loc 1 219 5 discriminator 1
 581 03f0 63FAC700 		bgeu	a5,a2,.L37
 582              		.loc 1 219 39 is_stmt 1 discriminator 3
 583              		.loc 1 219 28 discriminator 3
 584              		.loc 1 219 31 is_stmt 0 discriminator 3
 585 03f4 9B871700 		addiw	a5,a5,1
 586              	.LVL32:
 587              		.loc 1 219 29 discriminator 3
 588 03f8 3307E500 		add	a4,a0,a4
 589              		.loc 1 219 35 discriminator 3
 590 03fc 2300B700 		sb	a1,0(a4)
 591 0400 6FF0DFFE 		j	.L34
 592              	.LVL33:
 593              	.L37:
 594              	.LBE45:
 220:src/kernel.c  ****     return  ptr;
 221:src/kernel.c  **** }
 595              		.loc 1 221 1
 596 0404 03348100 		ld	s0,8(sp)
 597              		.cfi_restore 8
 598              		.cfi_def_cfa 2, 16
 599 0408 13010101 		addi	sp,sp,16
 600              		.cfi_def_cfa_offset 0
 601 040c 67800000 		jr	ra
 602              		.cfi_endproc
 603              	.LFE16:
 605              		.align	2
 606              		.globl	__thread_exit
 608              	__thread_exit:
 609              	.LFB19:
 222:src/kernel.c  **** 
 223:src/kernel.c  **** void puthexdigit(int a) {
 224:src/kernel.c  ****    if (a > 9)
 225:src/kernel.c  ****        putc1('a'+ a - 10);
 226:src/kernel.c  ****     else
 227:src/kernel.c  ****         putc1('0'+ a);
 228:src/kernel.c  **** 
 229:src/kernel.c  **** }
 230:src/kernel.c  **** 
 231:src/kernel.c  **** void printaddr(uintptr a) {
 232:src/kernel.c  ****     for (int i = 7; i >= 0; i--) {
 233:src/kernel.c  ****         int bajt = (a >> (i*8)) & 0xff;
 234:src/kernel.c  ****         int hi = bajt >> 4;
 235:src/kernel.c  ****         int lo = bajt & 0xf;
GAS LISTING /tmp/ccCr5Wow.s 			page 19


 236:src/kernel.c  ****         puthexdigit(hi);
 237:src/kernel.c  ****         puthexdigit(lo);
 238:src/kernel.c  ****     }
 239:src/kernel.c  **** }
 240:src/kernel.c  **** 
 241:src/kernel.c  **** int __thread_exit(){
 610              		.loc 1 241 20 is_stmt 1
 611              		.cfi_startproc
 242:src/kernel.c  ****   if(running->state==DEAD){
 612              		.loc 1 242 3
 613              		.loc 1 242 13 is_stmt 0
 614 0410 97070000 		ld	a5,running
 614      83B70700 
 615 0418 83A68701 		lw	a3,24(a5)
 616              		.loc 1 242 5
 617 041c 13075000 		li	a4,5
 618 0420 638AE602 		beq	a3,a4,.L40
 241:src/kernel.c  ****   if(running->state==DEAD){
 619              		.loc 1 241 20
 620 0424 130101FF 		addi	sp,sp,-16
 621              		.cfi_def_cfa_offset 16
 622 0428 23341100 		sd	ra,8(sp)
 623 042c 23308100 		sd	s0,0(sp)
 624              		.cfi_offset 1, -8
 625              		.cfi_offset 8, -16
 626 0430 13040101 		addi	s0,sp,16
 627              		.cfi_def_cfa 8, 0
 243:src/kernel.c  ****       return -1;
 244:src/kernel.c  ****   }
 245:src/kernel.c  ****     running->state=DEAD;
 628              		.loc 1 245 5 is_stmt 1
 629              		.loc 1 245 19 is_stmt 0
 630 0434 23ACE700 		sw	a4,24(a5)
 246:src/kernel.c  ****     __thread_dispatch();
 631              		.loc 1 246 5 is_stmt 1
 632 0438 97000000 		call	__thread_dispatch
 632      E7800000 
 633              	.LVL34:
 247:src/kernel.c  ****     return 0;
 634              		.loc 1 247 5
 635              		.loc 1 247 12 is_stmt 0
 636 0440 13050000 		li	a0,0
 248:src/kernel.c  **** }
 637              		.loc 1 248 1
 638 0444 83308100 		ld	ra,8(sp)
 639              		.cfi_restore 1
 640 0448 03340100 		ld	s0,0(sp)
 641              		.cfi_restore 8
 642              		.cfi_def_cfa 2, 16
 643 044c 13010101 		addi	sp,sp,16
 644              		.cfi_def_cfa_offset 0
 645 0450 67800000 		jr	ra
 646              	.L40:
 243:src/kernel.c  ****   }
 647              		.loc 1 243 14
 648 0454 1305F0FF 		li	a0,-1
 649              		.loc 1 248 1
GAS LISTING /tmp/ccCr5Wow.s 			page 20


 650 0458 67800000 		ret
 651              		.cfi_endproc
 652              	.LFE19:
 654              		.align	2
 655              		.globl	__sem_open
 657              	__sem_open:
 658              	.LFB20:
 249:src/kernel.c  **** 
 250:src/kernel.c  **** extern void *mem_alloc(size_t size);
 251:src/kernel.c  **** extern int mem_free(void* p);
 252:src/kernel.c  **** 
 253:src/kernel.c  **** int __sem_open (
 254:src/kernel.c  ****         sem_t* handle,
 255:src/kernel.c  ****         unsigned init
 256:src/kernel.c  **** ){
 659              		.loc 1 256 2 is_stmt 1
 660              		.cfi_startproc
 661              	.LVL35:
 662 045c 130101FE 		addi	sp,sp,-32
 663              		.cfi_def_cfa_offset 32
 664 0460 233C1100 		sd	ra,24(sp)
 665 0464 23388100 		sd	s0,16(sp)
 666 0468 23349100 		sd	s1,8(sp)
 667 046c 23302101 		sd	s2,0(sp)
 668              		.cfi_offset 1, -8
 669              		.cfi_offset 8, -16
 670              		.cfi_offset 9, -24
 671              		.cfi_offset 18, -32
 672 0470 13040102 		addi	s0,sp,32
 673              		.cfi_def_cfa 8, 0
 674 0474 93040500 		mv	s1,a0
 675 0478 13890500 		mv	s2,a1
 257:src/kernel.c  **** 
 258:src/kernel.c  ****     (*handle)= __mem_alloc(sizeof(_sem));
 676              		.loc 1 258 5
 677              		.loc 1 258 16 is_stmt 0
 678 047c 13058001 		li	a0,24
 679              	.LVL36:
 680 0480 97000000 		call	__mem_alloc
 680      E7800000 
 681              	.LVL37:
 682              		.loc 1 258 14
 683 0488 23B0A400 		sd	a0,0(s1)
 259:src/kernel.c  ****     if(!(*handle)) return -1;
 684              		.loc 1 259 5 is_stmt 1
 685              		.loc 1 259 7 is_stmt 0
 686 048c 630A0502 		beqz	a0,.L47
 260:src/kernel.c  ****     (*handle)->value=init;
 687              		.loc 1 260 5 is_stmt 1
 688              		.loc 1 260 21 is_stmt 0
 689 0490 23202501 		sw	s2,0(a0)
 261:src/kernel.c  ****     (*handle)->blocked=NULL;
 690              		.loc 1 261 5 is_stmt 1
 691              		.loc 1 261 6 is_stmt 0
 692 0494 83B70400 		ld	a5,0(s1)
 693              		.loc 1 261 23
 694 0498 23B40700 		sd	zero,8(a5)
GAS LISTING /tmp/ccCr5Wow.s 			page 21


 262:src/kernel.c  ****     (*handle)->blend=NULL;
 695              		.loc 1 262 5 is_stmt 1
 696              		.loc 1 262 6 is_stmt 0
 697 049c 83B70400 		ld	a5,0(s1)
 698              		.loc 1 262 21
 699 04a0 23B80700 		sd	zero,16(a5)
 263:src/kernel.c  ****     return 0;
 700              		.loc 1 263 5 is_stmt 1
 701              		.loc 1 263 12 is_stmt 0
 702 04a4 13050000 		li	a0,0
 703              	.L46:
 264:src/kernel.c  **** }
 704              		.loc 1 264 1
 705 04a8 83308101 		ld	ra,24(sp)
 706              		.cfi_remember_state
 707              		.cfi_restore 1
 708 04ac 03340101 		ld	s0,16(sp)
 709              		.cfi_restore 8
 710              		.cfi_def_cfa 2, 32
 711 04b0 83348100 		ld	s1,8(sp)
 712              		.cfi_restore 9
 713              	.LVL38:
 714 04b4 03390100 		ld	s2,0(sp)
 715              		.cfi_restore 18
 716 04b8 13010102 		addi	sp,sp,32
 717              		.cfi_def_cfa_offset 0
 718 04bc 67800000 		jr	ra
 719              	.LVL39:
 720              	.L47:
 721              		.cfi_restore_state
 259:src/kernel.c  ****     (*handle)->value=init;
 722              		.loc 1 259 27
 723 04c0 1305F0FF 		li	a0,-1
 724 04c4 6FF05FFE 		j	.L46
 725              		.cfi_endproc
 726              	.LFE20:
 728              		.align	2
 729              		.globl	__sem_close
 731              	__sem_close:
 732              	.LFB21:
 265:src/kernel.c  **** int __sem_close(sem_t handle){
 733              		.loc 1 265 30 is_stmt 1
 734              		.cfi_startproc
 735              	.LVL40:
 736 04c8 130101FE 		addi	sp,sp,-32
 737              		.cfi_def_cfa_offset 32
 738 04cc 233C1100 		sd	ra,24(sp)
 739 04d0 23388100 		sd	s0,16(sp)
 740 04d4 23349100 		sd	s1,8(sp)
 741 04d8 23302101 		sd	s2,0(sp)
 742              		.cfi_offset 1, -8
 743              		.cfi_offset 8, -16
 744              		.cfi_offset 9, -24
 745              		.cfi_offset 18, -32
 746 04dc 13040102 		addi	s0,sp,32
 747              		.cfi_def_cfa 8, 0
 748 04e0 13090500 		mv	s2,a0
GAS LISTING /tmp/ccCr5Wow.s 			page 22


 266:src/kernel.c  ****     blist* s;
 749              		.loc 1 266 5
 267:src/kernel.c  ****     while(handle->blocked){
 750              		.loc 1 267 5
 751              	.LVL41:
 752              	.L50:
 753              		.loc 1 267 10
 754              		.loc 1 267 17 is_stmt 0
 755 04e4 83348900 		ld	s1,8(s2)
 756              		.loc 1 267 10
 757 04e8 638E0402 		beqz	s1,.L54
 758              	.LBB46:
 268:src/kernel.c  ****         s=handle->blocked;
 759              		.loc 1 268 9 is_stmt 1
 760              	.LVL42:
 269:src/kernel.c  ****         thread_t thr=s->data;
 761              		.loc 1 269 9
 762              		.loc 1 269 18 is_stmt 0
 763 04ec 03B50400 		ld	a0,0(s1)
 764              	.LVL43:
 270:src/kernel.c  ****         thr->state=READY;
 765              		.loc 1 270 9 is_stmt 1
 766              		.loc 1 270 19 is_stmt 0
 767 04f0 93071000 		li	a5,1
 768 04f4 232CF500 		sw	a5,24(a0)
 271:src/kernel.c  ****         sc_put(thr);
 769              		.loc 1 271 9 is_stmt 1
 770 04f8 97000000 		call	sc_put
 770      E7800000 
 771              	.LVL44:
 272:src/kernel.c  ****         handle->blocked=handle->blocked->next;
 772              		.loc 1 272 9
 773              		.loc 1 272 31 is_stmt 0
 774 0500 83378900 		ld	a5,8(s2)
 775              		.loc 1 272 40
 776 0504 83B70701 		ld	a5,16(a5)
 777              		.loc 1 272 24
 778 0508 2334F900 		sd	a5,8(s2)
 273:src/kernel.c  ****         if(__mem_free(s)==-1) return -1;
 779              		.loc 1 273 9 is_stmt 1
 780              		.loc 1 273 12 is_stmt 0
 781 050c 13850400 		mv	a0,s1
 782 0510 97000000 		call	__mem_free
 782      E7800000 
 783              	.LVL45:
 784              		.loc 1 273 11
 785 0518 9307F0FF 		li	a5,-1
 786 051c E314F5FC 		bne	a0,a5,.L50
 787 0520 6F00C001 		j	.L51
 788              	.LVL46:
 789              	.L54:
 790              	.LBE46:
 274:src/kernel.c  **** 
 275:src/kernel.c  ****     }
 276:src/kernel.c  ****     if(__mem_free(handle)==-1)return -1;
 791              		.loc 1 276 5 is_stmt 1
 792              		.loc 1 276 8 is_stmt 0
GAS LISTING /tmp/ccCr5Wow.s 			page 23


 793 0524 13050900 		mv	a0,s2
 794 0528 97000000 		call	__mem_free
 794      E7800000 
 795              	.LVL47:
 796              		.loc 1 276 7
 797 0530 9307F0FF 		li	a5,-1
 798 0534 6304F500 		beq	a0,a5,.L51
 277:src/kernel.c  ****     return 0;
 799              		.loc 1 277 12
 800 0538 13050000 		li	a0,0
 801              	.L51:
 278:src/kernel.c  **** }
 802              		.loc 1 278 1
 803 053c 83308101 		ld	ra,24(sp)
 804              		.cfi_restore 1
 805 0540 03340101 		ld	s0,16(sp)
 806              		.cfi_restore 8
 807              		.cfi_def_cfa 2, 32
 808 0544 83348100 		ld	s1,8(sp)
 809              		.cfi_restore 9
 810 0548 03390100 		ld	s2,0(sp)
 811              		.cfi_restore 18
 812              	.LVL48:
 813 054c 13010102 		addi	sp,sp,32
 814              		.cfi_def_cfa_offset 0
 815 0550 67800000 		jr	ra
 816              		.cfi_endproc
 817              	.LFE21:
 819              		.align	2
 820              		.globl	__sem_wait
 822              	__sem_wait:
 823              	.LFB22:
 279:src/kernel.c  **** void putc1(char c);
 280:src/kernel.c  **** spinlock semlock=INITLOCK;
 281:src/kernel.c  **** int __sem_wait (sem_t id){
 824              		.loc 1 281 26 is_stmt 1
 825              		.cfi_startproc
 826              	.LVL49:
 282:src/kernel.c  ****     //mc_sstatus(SSTATUS_SIE);
 283:src/kernel.c  ****     if(id && (--id->value<0)){
 827              		.loc 1 283 5
 828              		.loc 1 283 7 is_stmt 0
 829 0554 630A0506 		beqz	a0,.L57
 830              		.loc 1 283 19 discriminator 1
 831 0558 83270500 		lw	a5,0(a0)
 832              		.loc 1 283 15 discriminator 1
 833 055c 9B87F7FF 		addiw	a5,a5,-1
 834              		.loc 1 283 11 discriminator 1
 835 0560 2320F500 		sw	a5,0(a0)
 836 0564 13970702 		slli	a4,a5,32
 837 0568 63460700 		bltz	a4,.L63
 284:src/kernel.c  ****         //ms_sstatus(SSTATUS_SIE);
 285:src/kernel.c  ****         running->state=BLOCKED;
 286:src/kernel.c  ****         int x=b_put(id,running);
 287:src/kernel.c  ****         if(x==-1) return -1;
 288:src/kernel.c  ****             timeSliceCounter=0;
 289:src/kernel.c  ****            // slrelease(&semlock);
GAS LISTING /tmp/ccCr5Wow.s 			page 24


 290:src/kernel.c  ****             __thread_dispatch();
 291:src/kernel.c  **** 
 292:src/kernel.c  ****     }
 293:src/kernel.c  ****     //ms_sstatus(SSTATUS_SIE);
 294:src/kernel.c  **** 
 295:src/kernel.c  ****     return 0;
 838              		.loc 1 295 12
 839 056c 13050000 		li	a0,0
 840              	.LVL50:
 296:src/kernel.c  **** }
 841              		.loc 1 296 1
 842 0570 67800000 		ret
 843              	.LVL51:
 844              	.L63:
 281:src/kernel.c  ****     //mc_sstatus(SSTATUS_SIE);
 845              		.loc 1 281 26
 846 0574 130101FF 		addi	sp,sp,-16
 847              		.cfi_def_cfa_offset 16
 848 0578 23341100 		sd	ra,8(sp)
 849 057c 23308100 		sd	s0,0(sp)
 850              		.cfi_offset 1, -8
 851              		.cfi_offset 8, -16
 852 0580 13040101 		addi	s0,sp,16
 853              		.cfi_def_cfa 8, 0
 854              	.LBB47:
 285:src/kernel.c  ****         int x=b_put(id,running);
 855              		.loc 1 285 9 is_stmt 1
 285:src/kernel.c  ****         int x=b_put(id,running);
 856              		.loc 1 285 16 is_stmt 0
 857 0584 97050000 		ld	a1,running
 857      83B50500 
 285:src/kernel.c  ****         int x=b_put(id,running);
 858              		.loc 1 285 23
 859 058c 93073000 		li	a5,3
 860 0590 23ACF500 		sw	a5,24(a1)
 286:src/kernel.c  ****         if(x==-1) return -1;
 861              		.loc 1 286 9 is_stmt 1
 286:src/kernel.c  ****         if(x==-1) return -1;
 862              		.loc 1 286 15 is_stmt 0
 863 0594 97000000 		call	b_put
 863      E7800000 
 864              	.LVL52:
 287:src/kernel.c  ****             timeSliceCounter=0;
 865              		.loc 1 287 9 is_stmt 1
 287:src/kernel.c  ****             timeSliceCounter=0;
 866              		.loc 1 287 11 is_stmt 0
 867 059c 9307F0FF 		li	a5,-1
 868 05a0 630CF500 		beq	a0,a5,.L56
 288:src/kernel.c  ****            // slrelease(&semlock);
 869              		.loc 1 288 13 is_stmt 1
 288:src/kernel.c  ****            // slrelease(&semlock);
 870              		.loc 1 288 29 is_stmt 0
 871 05a4 97070000 		sd	zero,timeSliceCounter,a5
 871      23B00700 
 290:src/kernel.c  **** 
 872              		.loc 1 290 13 is_stmt 1
 873 05ac 97000000 		call	__thread_dispatch
GAS LISTING /tmp/ccCr5Wow.s 			page 25


 873      E7800000 
 874              	.LVL53:
 875              	.LBE47:
 295:src/kernel.c  **** }
 876              		.loc 1 295 12 is_stmt 0
 877 05b4 13050000 		li	a0,0
 878              	.L56:
 879              		.loc 1 296 1
 880 05b8 83308100 		ld	ra,8(sp)
 881              		.cfi_restore 1
 882 05bc 03340100 		ld	s0,0(sp)
 883              		.cfi_restore 8
 884              		.cfi_def_cfa 2, 16
 885 05c0 13010101 		addi	sp,sp,16
 886              		.cfi_def_cfa_offset 0
 887 05c4 67800000 		jr	ra
 888              	.LVL54:
 889              	.L57:
 295:src/kernel.c  **** }
 890              		.loc 1 295 12
 891 05c8 13050000 		li	a0,0
 892              	.LVL55:
 893 05cc 67800000 		ret
 894              		.cfi_endproc
 895              	.LFE22:
 897              		.align	2
 898              		.globl	__sem_signal
 900              	__sem_signal:
 901              	.LFB23:
 297:src/kernel.c  **** 
 298:src/kernel.c  **** int __sem_signal (sem_t id){
 902              		.loc 1 298 28 is_stmt 1
 903              		.cfi_startproc
 904              	.LVL56:
 299:src/kernel.c  **** 
 300:src/kernel.c  ****             //mc_sstatus(SSTATUS_SIE);
 301:src/kernel.c  ****             ++id->value;
 905              		.loc 1 301 13
 906              		.loc 1 301 17 is_stmt 0
 907 05d0 83270500 		lw	a5,0(a0)
 908              		.loc 1 301 13
 909 05d4 9B871700 		addiw	a5,a5,1
 910 05d8 1B870700 		sext.w	a4,a5
 911 05dc 2320F500 		sw	a5,0(a0)
 302:src/kernel.c  ****             //ms_sstatus(SSTATUS_SIE);
 303:src/kernel.c  ****             if (id->value <= 0) {
 912              		.loc 1 303 13 is_stmt 1
 913              		.loc 1 303 16 is_stmt 0
 914 05e0 6342E004 		bgtz	a4,.L66
 298:src/kernel.c  **** 
 915              		.loc 1 298 28
 916 05e4 130101FF 		addi	sp,sp,-16
 917              		.cfi_def_cfa_offset 16
 918 05e8 23341100 		sd	ra,8(sp)
 919 05ec 23308100 		sd	s0,0(sp)
 920              		.cfi_offset 1, -8
 921              		.cfi_offset 8, -16
GAS LISTING /tmp/ccCr5Wow.s 			page 26


 922 05f0 13040101 		addi	s0,sp,16
 923              		.cfi_def_cfa 8, 0
 924              	.LBB48:
 304:src/kernel.c  ****                 thread_t thr = b_get(id);
 925              		.loc 1 304 17 is_stmt 1
 926              		.loc 1 304 32 is_stmt 0
 927 05f4 97000000 		call	b_get
 927      E7800000 
 928              	.LVL57:
 305:src/kernel.c  **** 
 306:src/kernel.c  ****                 if (thr) {
 929              		.loc 1 306 17 is_stmt 1
 930              		.loc 1 306 20 is_stmt 0
 931 05fc 63080502 		beqz	a0,.L67
 307:src/kernel.c  ****                     thr->state = READY;
 932              		.loc 1 307 21 is_stmt 1
 933              		.loc 1 307 32 is_stmt 0
 934 0600 93071000 		li	a5,1
 935 0604 232CF500 		sw	a5,24(a0)
 308:src/kernel.c  ****                     sc_put(thr);
 936              		.loc 1 308 21 is_stmt 1
 937 0608 97000000 		call	sc_put
 937      E7800000 
 938              	.LVL58:
 309:src/kernel.c  ****                     return 0;
 939              		.loc 1 309 21
 940              		.loc 1 309 28 is_stmt 0
 941 0610 13050000 		li	a0,0
 942              	.L65:
 943              	.LBE48:
 310:src/kernel.c  **** 
 311:src/kernel.c  ****                 }
 312:src/kernel.c  **** 
 313:src/kernel.c  ****             }
 314:src/kernel.c  **** 
 315:src/kernel.c  ****         //putc1('s');
 316:src/kernel.c  **** 
 317:src/kernel.c  ****         return -1;
 318:src/kernel.c  **** 
 319:src/kernel.c  **** 
 320:src/kernel.c  **** 
 321:src/kernel.c  **** }
 944              		.loc 1 321 1
 945 0614 83308100 		ld	ra,8(sp)
 946              		.cfi_restore 1
 947 0618 03340100 		ld	s0,0(sp)
 948              		.cfi_restore 8
 949              		.cfi_def_cfa 2, 16
 950 061c 13010101 		addi	sp,sp,16
 951              		.cfi_def_cfa_offset 0
 952 0620 67800000 		jr	ra
 953              	.LVL59:
 954              	.L66:
 317:src/kernel.c  **** 
 955              		.loc 1 317 16
 956 0624 1305F0FF 		li	a0,-1
 957              	.LVL60:
GAS LISTING /tmp/ccCr5Wow.s 			page 27


 958              		.loc 1 321 1
 959 0628 67800000 		ret
 960              	.LVL61:
 961              	.L67:
 962              		.cfi_def_cfa_register 8
 963              		.cfi_offset 1, -8
 964              		.cfi_offset 8, -16
 317:src/kernel.c  **** 
 965              		.loc 1 317 16
 966 062c 1305F0FF 		li	a0,-1
 967              	.LVL62:
 968 0630 6FF05FFE 		j	.L65
 969              		.cfi_endproc
 970              	.LFE23:
 972              		.align	2
 973              		.globl	console_putc
 975              	console_putc:
 976              	.LFB25:
 322:src/kernel.c  **** extern int putblocked(thread_t thr,time_t time);
 323:src/kernel.c  **** extern blist* blocked;
 324:src/kernel.c  **** spinlock block=INITLOCK;
 325:src/kernel.c  **** int __time_sleep (time_t time){
 326:src/kernel.c  ****         running->state=WAITING;
 327:src/kernel.c  ****         running->sleep=time;
 328:src/kernel.c  ****        // slacquire(&block);
 329:src/kernel.c  ****         int ret=putblocked(running,time);
 330:src/kernel.c  ****         //slrelease(&block);
 331:src/kernel.c  ****         if(ret==-1) {putc1('G');return -1;}
 332:src/kernel.c  ****         timeSliceCounter=0;
 333:src/kernel.c  ****         __thread_dispatch();
 334:src/kernel.c  ****         return 0;
 335:src/kernel.c  **** }
 336:src/kernel.c  **** extern void put_uart1(char c);
 337:src/kernel.c  **** extern char get_uart1();
 338:src/kernel.c  **** extern void put_uart2(char c);
 339:src/kernel.c  **** extern char get_uart2();
 340:src/kernel.c  **** extern void initBuffers();
 341:src/kernel.c  **** extern int isEmpty1();
 342:src/kernel.c  **** extern int isEmpty2();
 343:src/kernel.c  **** void  printc(char c);
 344:src/kernel.c  **** void console_putc(){
 977              		.loc 1 344 20 is_stmt 1
 978              		.cfi_startproc
 979 0634 130101FE 		addi	sp,sp,-32
 980              		.cfi_def_cfa_offset 32
 981 0638 233C1100 		sd	ra,24(sp)
 982 063c 23388100 		sd	s0,16(sp)
 983 0640 23349100 		sd	s1,8(sp)
 984 0644 23302101 		sd	s2,0(sp)
 985              		.cfi_offset 1, -8
 986              		.cfi_offset 8, -16
 987              		.cfi_offset 9, -24
 988              		.cfi_offset 18, -32
 989 0648 13040102 		addi	s0,sp,32
 990              		.cfi_def_cfa 8, 0
 991 064c 6F00C000 		j	.L73
 992              	.LVL63:
GAS LISTING /tmp/ccCr5Wow.s 			page 28


 993              	.L75:
 994              	.LBB49:
 995              	.LBB50:
 345:src/kernel.c  ****     while(1) {
 346:src/kernel.c  ****         while((mainthr->state==DEAD) && !isEmpty2()){
 347:src/kernel.c  ****             mc_sstatus(SSTATUS_SIE);
 348:src/kernel.c  ****             uint8 status = *(uint8*)CONSOLE_STATUS;
 349:src/kernel.c  ****             while ((status & CONSOLE_TX_STATUS_BIT) && !isEmpty2()) {
 350:src/kernel.c  **** 
 351:src/kernel.c  ****                 char c = get_uart2();
 352:src/kernel.c  ****                 __sem_signal(fullPutc);
 353:src/kernel.c  ****                 *((char *) (CONSOLE_TX_DATA)) = c;
 354:src/kernel.c  ****                 status = *(uint8*)CONSOLE_STATUS;
 355:src/kernel.c  **** 
 356:src/kernel.c  ****             }
 357:src/kernel.c  ****             ms_sstatus(SSTATUS_SIE);
 996              		.loc 1 357 13
 997              	.LBB51:
 998              	.LBB52:
  23:src/kernel.c  **** }
 999              		.loc 1 23 5
 1000 0650 93072000 		li	a5,2
 1001              	#APP
 1002              	# 23 "src/kernel.c" 1
 1003              		csrs sstatus, a5
 1004              	# 0 "" 2
 1005              	.LVL64:
 1006              	#NO_APP
 1007              	.L73:
 1008              	.LBE52:
 1009              	.LBE51:
 1010              	.LBE50:
 346:src/kernel.c  ****             mc_sstatus(SSTATUS_SIE);
 1011              		.loc 1 346 14
 346:src/kernel.c  ****             mc_sstatus(SSTATUS_SIE);
 1012              		.loc 1 346 23 is_stmt 0
 1013 0658 97070000 		ld	a5,mainthr
 1013      83B70700 
 1014 0660 03A78701 		lw	a4,24(a5)
 346:src/kernel.c  ****             mc_sstatus(SSTATUS_SIE);
 1015              		.loc 1 346 14
 1016 0664 93075000 		li	a5,5
 1017 0668 6314F706 		bne	a4,a5,.L77
 346:src/kernel.c  ****             mc_sstatus(SSTATUS_SIE);
 1018              		.loc 1 346 42 discriminator 1
 1019 066c 97000000 		call	isEmpty2
 1019      E7800000 
 1020              	.LVL65:
 346:src/kernel.c  ****             mc_sstatus(SSTATUS_SIE);
 1021              		.loc 1 346 38 discriminator 1
 1022 0674 631E0504 		bnez	a0,.L77
 1023              	.LBB56:
 347:src/kernel.c  ****             uint8 status = *(uint8*)CONSOLE_STATUS;
 1024              		.loc 1 347 13 is_stmt 1
 1025              	.LVL66:
 1026              	.LBB53:
 1027              	.LBB54:
GAS LISTING /tmp/ccCr5Wow.s 			page 29


  47:src/kernel.c  **** }
 1028              		.loc 1 47 5
 1029 0678 93072000 		li	a5,2
 1030              	#APP
 1031              	# 47 "src/kernel.c" 1
 1032              		csrc sstatus, a5
 1033              	# 0 "" 2
 1034              	.LVL67:
 1035              	#NO_APP
 1036              	.LBE54:
 1037              	.LBE53:
 348:src/kernel.c  ****             while ((status & CONSOLE_TX_STATUS_BIT) && !isEmpty2()) {
 1038              		.loc 1 348 13
 348:src/kernel.c  ****             while ((status & CONSOLE_TX_STATUS_BIT) && !isEmpty2()) {
 1039              		.loc 1 348 29 is_stmt 0
 1040 0680 17090000 		ld	s2,CONSOLE_STATUS
 1040      03390900 
 348:src/kernel.c  ****             while ((status & CONSOLE_TX_STATUS_BIT) && !isEmpty2()) {
 1041              		.loc 1 348 19
 1042 0688 83470900 		lbu	a5,0(s2)
 1043              	.LVL68:
 349:src/kernel.c  **** 
 1044              		.loc 1 349 13 is_stmt 1
 1045              	.L74:
 349:src/kernel.c  **** 
 1046              		.loc 1 349 19
 1047 068c 93F70702 		andi	a5,a5,32
 1048              	.LVL69:
 1049 0690 E38007FC 		beqz	a5,.L75
 349:src/kernel.c  **** 
 1050              		.loc 1 349 57 is_stmt 0 discriminator 1
 1051 0694 97000000 		call	isEmpty2
 1051      E7800000 
 1052              	.LVL70:
 349:src/kernel.c  **** 
 1053              		.loc 1 349 53 discriminator 1
 1054 069c E31A05FA 		bnez	a0,.L75
 1055              	.LBB55:
 351:src/kernel.c  ****                 __sem_signal(fullPutc);
 1056              		.loc 1 351 17 is_stmt 1
 351:src/kernel.c  ****                 __sem_signal(fullPutc);
 1057              		.loc 1 351 26 is_stmt 0
 1058 06a0 97000000 		call	get_uart2
 1058      E7800000 
 1059              	.LVL71:
 1060 06a8 93040500 		mv	s1,a0
 1061              	.LVL72:
 352:src/kernel.c  ****                 *((char *) (CONSOLE_TX_DATA)) = c;
 1062              		.loc 1 352 17 is_stmt 1
 1063 06ac 17050000 		ld	a0,fullPutc
 1063      03350500 
 1064 06b4 97000000 		call	__sem_signal
 1064      E7800000 
 1065              	.LVL73:
 353:src/kernel.c  ****                 status = *(uint8*)CONSOLE_STATUS;
 1066              		.loc 1 353 17
 353:src/kernel.c  ****                 status = *(uint8*)CONSOLE_STATUS;
GAS LISTING /tmp/ccCr5Wow.s 			page 30


 1067              		.loc 1 353 19 is_stmt 0
 1068 06bc 97070000 		ld	a5,CONSOLE_TX_DATA
 1068      83B70700 
 353:src/kernel.c  ****                 status = *(uint8*)CONSOLE_STATUS;
 1069              		.loc 1 353 47
 1070 06c4 23809700 		sb	s1,0(a5)
 354:src/kernel.c  **** 
 1071              		.loc 1 354 17 is_stmt 1
 354:src/kernel.c  **** 
 1072              		.loc 1 354 24 is_stmt 0
 1073 06c8 83470900 		lbu	a5,0(s2)
 1074              	.LVL74:
 1075 06cc 6FF01FFC 		j	.L74
 1076              	.LVL75:
 1077              	.L77:
 1078              	.LBE55:
 1079              	.LBE56:
 358:src/kernel.c  ****         }
 359:src/kernel.c  **** 
 360:src/kernel.c  ****         if((mainthr->state==DEAD) && isEmpty2()) break;
 1080              		.loc 1 360 9 is_stmt 1
 1081              		.loc 1 360 20 is_stmt 0
 1082 06d0 97070000 		ld	a5,mainthr
 1082      83B70700 
 1083 06d8 03A78701 		lw	a4,24(a5)
 1084              		.loc 1 360 11
 1085 06dc 93075000 		li	a5,5
 1086 06e0 6318F700 		bne	a4,a5,.L79
 1087              		.loc 1 360 38 discriminator 1
 1088 06e4 97000000 		call	isEmpty2
 1088      E7800000 
 1089              	.LVL76:
 1090              		.loc 1 360 35 discriminator 1
 1091 06ec 63120506 		bnez	a0,.L72
 1092              	.L79:
 361:src/kernel.c  ****        /* if(isEmpty2()){
 362:src/kernel.c  ****             __thread_dispatch();
 363:src/kernel.c  ****         }*/
 364:src/kernel.c  ****         /*while(isEmpty2()){
 365:src/kernel.c  ****            if(sc_in(0) || scheduler->next!=NULL)__thread_dispatch();
 366:src/kernel.c  ****            else break;
 367:src/kernel.c  ****         }*/
 368:src/kernel.c  ****         if(isEmpty2()){
 1093              		.loc 1 368 9 is_stmt 1
 1094              		.loc 1 368 12 is_stmt 0
 1095 06f0 97000000 		call	isEmpty2
 1095      E7800000 
 1096              	.LVL77:
 1097              		.loc 1 368 11
 1098 06f8 631A0500 		bnez	a0,.L87
 1099              	.L81:
 369:src/kernel.c  ****             __sem_wait(ioSem);
 370:src/kernel.c  ****         }
 371:src/kernel.c  **** 
 372:src/kernel.c  ****             //mc_sstatus(SSTATUS_SIE);
 373:src/kernel.c  ****             uint8 status = *(uint8*)CONSOLE_STATUS;
 1100              		.loc 1 373 13 is_stmt 1
GAS LISTING /tmp/ccCr5Wow.s 			page 31


 1101              		.loc 1 373 29 is_stmt 0
 1102 06fc 97040000 		ld	s1,CONSOLE_STATUS
 1102      83B40400 
 1103              		.loc 1 373 19
 1104 0704 83C70400 		lbu	a5,0(s1)
 1105              	.LVL78:
 374:src/kernel.c  ****             while ((status & CONSOLE_TX_STATUS_BIT) && !isEmpty2()) {
 1106              		.loc 1 374 13 is_stmt 1
 1107              		.loc 1 374 19 is_stmt 0
 1108 0708 6F000003 		j	.L82
 1109              	.LVL79:
 1110              	.L87:
 369:src/kernel.c  ****             __sem_wait(ioSem);
 1111              		.loc 1 369 13 is_stmt 1
 1112 070c 17050000 		ld	a0,ioSem
 1112      03350500 
 1113 0714 97000000 		call	__sem_wait
 1113      E7800000 
 1114              	.LVL80:
 1115 071c 6FF01FFE 		j	.L81
 1116              	.L84:
 1117              	.LBB57:
 375:src/kernel.c  **** 
 376:src/kernel.c  ****                 char c = get_uart2();
 1118              		.loc 1 376 17
 1119              		.loc 1 376 26 is_stmt 0
 1120 0720 97000000 		call	get_uart2
 1120      E7800000 
 1121              	.LVL81:
 377:src/kernel.c  ****                 *((char *) (CONSOLE_TX_DATA)) = c;
 1122              		.loc 1 377 17 is_stmt 1
 1123              		.loc 1 377 19 is_stmt 0
 1124 0728 97070000 		ld	a5,CONSOLE_TX_DATA
 1124      83B70700 
 1125              		.loc 1 377 47
 1126 0730 2380A700 		sb	a0,0(a5)
 378:src/kernel.c  ****                 status = *(uint8*)CONSOLE_STATUS;
 1127              		.loc 1 378 17 is_stmt 1
 1128              		.loc 1 378 24 is_stmt 0
 1129 0734 83C70400 		lbu	a5,0(s1)
 1130              	.LVL82:
 1131              	.L82:
 1132              	.LBE57:
 374:src/kernel.c  **** 
 1133              		.loc 1 374 19 is_stmt 1
 1134 0738 93F70702 		andi	a5,a5,32
 1135              	.LVL83:
 1136 073c E38E07F0 		beqz	a5,.L73
 374:src/kernel.c  **** 
 1137              		.loc 1 374 57 is_stmt 0 discriminator 1
 1138 0740 97000000 		call	isEmpty2
 1138      E7800000 
 1139              	.LVL84:
 374:src/kernel.c  **** 
 1140              		.loc 1 374 53 discriminator 1
 1141 0748 E30C05FC 		beqz	a0,.L84
 1142 074c 6FF0DFF0 		j	.L73
GAS LISTING /tmp/ccCr5Wow.s 			page 32


 1143              	.L72:
 1144              	.LBE49:
 379:src/kernel.c  **** 
 380:src/kernel.c  ****             }
 381:src/kernel.c  ****           // ms_sstatus(SSTATUS_SIE);
 382:src/kernel.c  **** 
 383:src/kernel.c  **** 
 384:src/kernel.c  ****     }
 385:src/kernel.c  **** 
 386:src/kernel.c  **** }
 1145              		.loc 1 386 1
 1146 0750 83308101 		ld	ra,24(sp)
 1147              		.cfi_restore 1
 1148 0754 03340101 		ld	s0,16(sp)
 1149              		.cfi_restore 8
 1150              		.cfi_def_cfa 2, 32
 1151 0758 83348100 		ld	s1,8(sp)
 1152              		.cfi_restore 9
 1153 075c 03390100 		ld	s2,0(sp)
 1154              		.cfi_restore 18
 1155 0760 13010102 		addi	sp,sp,32
 1156              		.cfi_def_cfa_offset 0
 1157 0764 67800000 		jr	ra
 1158              		.cfi_endproc
 1159              	.LFE25:
 1161              		.align	2
 1162              		.globl	getc1
 1164              	getc1:
 1165              	.LFB26:
 387:src/kernel.c  **** extern char* uartBuffer2,uartBuffer1;
 388:src/kernel.c  **** char getc1 (){
 1166              		.loc 1 388 14 is_stmt 1
 1167              		.cfi_startproc
 1168 0768 130101FF 		addi	sp,sp,-16
 1169              		.cfi_def_cfa_offset 16
 1170 076c 23341100 		sd	ra,8(sp)
 1171 0770 23308100 		sd	s0,0(sp)
 1172              		.cfi_offset 1, -8
 1173              		.cfi_offset 8, -16
 1174 0774 13040101 		addi	s0,sp,16
 1175              		.cfi_def_cfa 8, 0
 389:src/kernel.c  ****     char c;
 1176              		.loc 1 389 5
 390:src/kernel.c  **** 
 391:src/kernel.c  **** 
 392:src/kernel.c  **** 
 393:src/kernel.c  ****     //*(uint8*)CONSOLE_STATUS|=!CONSOLE_RX_STATUS_BIT;
 394:src/kernel.c  ****     c=get_uart1();
 1177              		.loc 1 394 5
 1178              		.loc 1 394 7 is_stmt 0
 1179 0778 97000000 		call	get_uart1
 1179      E7800000 
 1180              	.LVL85:
 395:src/kernel.c  ****     //__putc(c);
 396:src/kernel.c  ****     return c;
 1181              		.loc 1 396 5 is_stmt 1
 397:src/kernel.c  **** }
GAS LISTING /tmp/ccCr5Wow.s 			page 33


 1182              		.loc 1 397 1 is_stmt 0
 1183 0780 83308100 		ld	ra,8(sp)
 1184              		.cfi_restore 1
 1185 0784 03340100 		ld	s0,0(sp)
 1186              		.cfi_restore 8
 1187              		.cfi_def_cfa 2, 16
 1188 0788 13010101 		addi	sp,sp,16
 1189              		.cfi_def_cfa_offset 0
 1190 078c 67800000 		jr	ra
 1191              		.cfi_endproc
 1192              	.LFE26:
 1194              		.align	2
 1195              		.globl	putc1
 1197              	putc1:
 1198              	.LFB27:
 398:src/kernel.c  **** extern int isFull2();
 399:src/kernel.c  **** extern int isFull1();
 400:src/kernel.c  **** void putc1 (char c){
 1199              		.loc 1 400 20 is_stmt 1
 1200              		.cfi_startproc
 1201              	.LVL86:
 1202 0790 130101FE 		addi	sp,sp,-32
 1203              		.cfi_def_cfa_offset 32
 1204 0794 233C1100 		sd	ra,24(sp)
 1205 0798 23388100 		sd	s0,16(sp)
 1206 079c 23349100 		sd	s1,8(sp)
 1207              		.cfi_offset 1, -8
 1208              		.cfi_offset 8, -16
 1209              		.cfi_offset 9, -24
 1210 07a0 13040102 		addi	s0,sp,32
 1211              		.cfi_def_cfa 8, 0
 1212 07a4 93040500 		mv	s1,a0
 401:src/kernel.c  ****     //popSppSpie();
 402:src/kernel.c  ****     /*while(isFull2()){
 403:src/kernel.c  ****        // __thread_dispatch();
 404:src/kernel.c  ****     }*/
 405:src/kernel.c  ****     if(isFull2()){
 1213              		.loc 1 405 5
 1214              		.loc 1 405 8 is_stmt 0
 1215 07a8 97000000 		call	isFull2
 1215      E7800000 
 1216              	.LVL87:
 1217              		.loc 1 405 7
 1218 07b0 631A0502 		bnez	a0,.L93
 1219              	.L91:
 406:src/kernel.c  ****         __sem_wait(fullPutc);
 407:src/kernel.c  ****     }
 408:src/kernel.c  ****     __sem_signal(ioSem);
 1220              		.loc 1 408 5 is_stmt 1
 1221 07b4 17050000 		ld	a0,ioSem
 1221      03350500 
 1222 07bc 97000000 		call	__sem_signal
 1222      E7800000 
 1223              	.LVL88:
 409:src/kernel.c  ****     put_uart2(c);
 1224              		.loc 1 409 5
 1225 07c4 13850400 		mv	a0,s1
GAS LISTING /tmp/ccCr5Wow.s 			page 34


 1226 07c8 97000000 		call	put_uart2
 1226      E7800000 
 1227              	.LVL89:
 410:src/kernel.c  **** 
 411:src/kernel.c  **** }
 1228              		.loc 1 411 1 is_stmt 0
 1229 07d0 83308101 		ld	ra,24(sp)
 1230              		.cfi_remember_state
 1231              		.cfi_restore 1
 1232 07d4 03340101 		ld	s0,16(sp)
 1233              		.cfi_restore 8
 1234              		.cfi_def_cfa 2, 32
 1235 07d8 83348100 		ld	s1,8(sp)
 1236              		.cfi_restore 9
 1237 07dc 13010102 		addi	sp,sp,32
 1238              		.cfi_def_cfa_offset 0
 1239 07e0 67800000 		jr	ra
 1240              	.L93:
 1241              		.cfi_restore_state
 406:src/kernel.c  ****     }
 1242              		.loc 1 406 9 is_stmt 1
 1243 07e4 17050000 		ld	a0,fullPutc
 1243      03350500 
 1244 07ec 97000000 		call	__sem_wait
 1244      E7800000 
 1245              	.LVL90:
 1246 07f4 6FF01FFC 		j	.L91
 1247              		.cfi_endproc
 1248              	.LFE27:
 1250              		.align	2
 1251              		.globl	puthexdigit
 1253              	puthexdigit:
 1254              	.LFB17:
 223:src/kernel.c  ****    if (a > 9)
 1255              		.loc 1 223 25
 1256              		.cfi_startproc
 1257              	.LVL91:
 1258 07f8 130101FF 		addi	sp,sp,-16
 1259              		.cfi_def_cfa_offset 16
 1260 07fc 23341100 		sd	ra,8(sp)
 1261 0800 23308100 		sd	s0,0(sp)
 1262              		.cfi_offset 1, -8
 1263              		.cfi_offset 8, -16
 1264 0804 13040101 		addi	s0,sp,16
 1265              		.cfi_def_cfa 8, 0
 224:src/kernel.c  ****        putc1('a'+ a - 10);
 1266              		.loc 1 224 4
 224:src/kernel.c  ****        putc1('a'+ a - 10);
 1267              		.loc 1 224 7 is_stmt 0
 1268 0808 93079000 		li	a5,9
 1269 080c 63D2A702 		ble	a0,a5,.L95
 225:src/kernel.c  ****     else
 1270              		.loc 1 225 8 is_stmt 1
 1271 0810 1B057505 		addiw	a0,a0,87
 1272              	.LVL92:
 1273 0814 1375F50F 		andi	a0,a0,0xff
 1274              	.LVL93:
GAS LISTING /tmp/ccCr5Wow.s 			page 35


 1275 0818 97000000 		call	putc1
 1275      E7800000 
 1276              	.LVL94:
 1277              	.L94:
 229:src/kernel.c  **** 
 1278              		.loc 1 229 1 is_stmt 0
 1279 0820 83308100 		ld	ra,8(sp)
 1280              		.cfi_remember_state
 1281              		.cfi_restore 1
 1282 0824 03340100 		ld	s0,0(sp)
 1283              		.cfi_restore 8
 1284              		.cfi_def_cfa 2, 16
 1285 0828 13010101 		addi	sp,sp,16
 1286              		.cfi_def_cfa_offset 0
 1287 082c 67800000 		jr	ra
 1288              	.LVL95:
 1289              	.L95:
 1290              		.cfi_restore_state
 227:src/kernel.c  **** 
 1291              		.loc 1 227 9 is_stmt 1
 1292 0830 1B050503 		addiw	a0,a0,48
 1293              	.LVL96:
 1294 0834 1375F50F 		andi	a0,a0,0xff
 1295              	.LVL97:
 1296 0838 97000000 		call	putc1
 1296      E7800000 
 1297              	.LVL98:
 229:src/kernel.c  **** 
 1298              		.loc 1 229 1 is_stmt 0
 1299 0840 6FF01FFE 		j	.L94
 1300              		.cfi_endproc
 1301              	.LFE17:
 1303              		.align	2
 1304              		.globl	printaddr
 1306              	printaddr:
 1307              	.LFB18:
 231:src/kernel.c  ****     for (int i = 7; i >= 0; i--) {
 1308              		.loc 1 231 27 is_stmt 1
 1309              		.cfi_startproc
 1310              	.LVL99:
 1311 0844 130101FD 		addi	sp,sp,-48
 1312              		.cfi_def_cfa_offset 48
 1313 0848 23341102 		sd	ra,40(sp)
 1314 084c 23308102 		sd	s0,32(sp)
 1315 0850 233C9100 		sd	s1,24(sp)
 1316 0854 23382101 		sd	s2,16(sp)
 1317 0858 23343101 		sd	s3,8(sp)
 1318              		.cfi_offset 1, -8
 1319              		.cfi_offset 8, -16
 1320              		.cfi_offset 9, -24
 1321              		.cfi_offset 18, -32
 1322              		.cfi_offset 19, -40
 1323 085c 13040103 		addi	s0,sp,48
 1324              		.cfi_def_cfa 8, 0
 1325 0860 93090500 		mv	s3,a0
 232:src/kernel.c  ****         int bajt = (a >> (i*8)) & 0xff;
 1326              		.loc 1 232 5
GAS LISTING /tmp/ccCr5Wow.s 			page 36


 1327              	.LBB58:
 232:src/kernel.c  ****         int bajt = (a >> (i*8)) & 0xff;
 1328              		.loc 1 232 10
 1329              	.LVL100:
 232:src/kernel.c  ****         int bajt = (a >> (i*8)) & 0xff;
 1330              		.loc 1 232 14 is_stmt 0
 1331 0864 13097000 		li	s2,7
 232:src/kernel.c  ****         int bajt = (a >> (i*8)) & 0xff;
 1332              		.loc 1 232 5
 1333 0868 6F000003 		j	.L99
 1334              	.LVL101:
 1335              	.L100:
 1336              	.LBB59:
 233:src/kernel.c  ****         int hi = bajt >> 4;
 1337              		.loc 1 233 9 is_stmt 1 discriminator 3
 233:src/kernel.c  ****         int hi = bajt >> 4;
 1338              		.loc 1 233 28 is_stmt 0 discriminator 3
 1339 086c 9B173900 		slliw	a5,s2,3
 233:src/kernel.c  ****         int hi = bajt >> 4;
 1340              		.loc 1 233 23 discriminator 3
 1341 0870 B3D7F900 		srl	a5,s3,a5
 233:src/kernel.c  ****         int hi = bajt >> 4;
 1342              		.loc 1 233 13 discriminator 3
 1343 0874 13F5F70F 		andi	a0,a5,0xff
 1344              	.LVL102:
 234:src/kernel.c  ****         int lo = bajt & 0xf;
 1345              		.loc 1 234 9 is_stmt 1 discriminator 3
 235:src/kernel.c  ****         puthexdigit(hi);
 1346              		.loc 1 235 9 discriminator 3
 235:src/kernel.c  ****         puthexdigit(hi);
 1347              		.loc 1 235 13 is_stmt 0 discriminator 3
 1348 0878 93F4F700 		andi	s1,a5,15
 1349              	.LVL103:
 236:src/kernel.c  ****         puthexdigit(lo);
 1350              		.loc 1 236 9 is_stmt 1 discriminator 3
 1351 087c 13554500 		srli	a0,a0,4
 1352              	.LVL104:
 1353 0880 97000000 		call	puthexdigit
 1353      E7800000 
 1354              	.LVL105:
 237:src/kernel.c  ****     }
 1355              		.loc 1 237 9 discriminator 3
 1356 0888 13850400 		mv	a0,s1
 1357 088c 97000000 		call	puthexdigit
 1357      E7800000 
 1358              	.LVL106:
 1359              	.LBE59:
 232:src/kernel.c  ****         int bajt = (a >> (i*8)) & 0xff;
 1360              		.loc 1 232 29 discriminator 3
 232:src/kernel.c  ****         int bajt = (a >> (i*8)) & 0xff;
 1361              		.loc 1 232 30 is_stmt 0 discriminator 3
 1362 0894 1B09F9FF 		addiw	s2,s2,-1
 1363              	.LVL107:
 1364              	.L99:
 232:src/kernel.c  ****         int bajt = (a >> (i*8)) & 0xff;
 1365              		.loc 1 232 21 is_stmt 1 discriminator 1
 232:src/kernel.c  ****         int bajt = (a >> (i*8)) & 0xff;
GAS LISTING /tmp/ccCr5Wow.s 			page 37


 1366              		.loc 1 232 5 is_stmt 0 discriminator 1
 1367 0898 E35A09FC 		bgez	s2,.L100
 1368              	.LBE58:
 239:src/kernel.c  **** 
 1369              		.loc 1 239 1
 1370 089c 83308102 		ld	ra,40(sp)
 1371              		.cfi_restore 1
 1372 08a0 03340102 		ld	s0,32(sp)
 1373              		.cfi_restore 8
 1374              		.cfi_def_cfa 2, 48
 1375 08a4 83348101 		ld	s1,24(sp)
 1376              		.cfi_restore 9
 1377 08a8 03390101 		ld	s2,16(sp)
 1378              		.cfi_restore 18
 1379              	.LVL108:
 1380 08ac 83398100 		ld	s3,8(sp)
 1381              		.cfi_restore 19
 1382              	.LVL109:
 1383 08b0 13010103 		addi	sp,sp,48
 1384              		.cfi_def_cfa_offset 0
 1385 08b4 67800000 		jr	ra
 1386              		.cfi_endproc
 1387              	.LFE18:
 1389              		.align	2
 1390              		.globl	__time_sleep
 1392              	__time_sleep:
 1393              	.LFB24:
 325:src/kernel.c  ****         running->state=WAITING;
 1394              		.loc 1 325 31 is_stmt 1
 1395              		.cfi_startproc
 1396              	.LVL110:
 1397 08b8 130101FE 		addi	sp,sp,-32
 1398              		.cfi_def_cfa_offset 32
 1399 08bc 233C1100 		sd	ra,24(sp)
 1400 08c0 23388100 		sd	s0,16(sp)
 1401 08c4 23349100 		sd	s1,8(sp)
 1402              		.cfi_offset 1, -8
 1403              		.cfi_offset 8, -16
 1404              		.cfi_offset 9, -24
 1405 08c8 13040102 		addi	s0,sp,32
 1406              		.cfi_def_cfa 8, 0
 1407 08cc 93050500 		mv	a1,a0
 326:src/kernel.c  ****         running->sleep=time;
 1408              		.loc 1 326 9
 326:src/kernel.c  ****         running->sleep=time;
 1409              		.loc 1 326 16 is_stmt 0
 1410 08d0 17050000 		ld	a0,running
 1410      03350500 
 1411              	.LVL111:
 326:src/kernel.c  ****         running->sleep=time;
 1412              		.loc 1 326 23
 1413 08d8 93074000 		li	a5,4
 1414 08dc 232CF500 		sw	a5,24(a0)
 327:src/kernel.c  ****        // slacquire(&block);
 1415              		.loc 1 327 9 is_stmt 1
 327:src/kernel.c  ****        // slacquire(&block);
 1416              		.loc 1 327 23 is_stmt 0
GAS LISTING /tmp/ccCr5Wow.s 			page 38


 1417 08e0 2330B504 		sd	a1,64(a0)
 329:src/kernel.c  ****         //slrelease(&block);
 1418              		.loc 1 329 9 is_stmt 1
 329:src/kernel.c  ****         //slrelease(&block);
 1419              		.loc 1 329 17 is_stmt 0
 1420 08e4 97000000 		call	putblocked
 1420      E7800000 
 1421              	.LVL112:
 331:src/kernel.c  ****         timeSliceCounter=0;
 1422              		.loc 1 331 9 is_stmt 1
 331:src/kernel.c  ****         timeSliceCounter=0;
 1423              		.loc 1 331 11 is_stmt 0
 1424 08ec 9307F0FF 		li	a5,-1
 1425 08f0 6308F502 		beq	a0,a5,.L106
 332:src/kernel.c  ****         __thread_dispatch();
 1426              		.loc 1 332 9 is_stmt 1
 332:src/kernel.c  ****         __thread_dispatch();
 1427              		.loc 1 332 25 is_stmt 0
 1428 08f4 97070000 		sd	zero,timeSliceCounter,a5
 1428      23B00700 
 333:src/kernel.c  ****         return 0;
 1429              		.loc 1 333 9 is_stmt 1
 1430 08fc 97000000 		call	__thread_dispatch
 1430      E7800000 
 1431              	.LVL113:
 334:src/kernel.c  **** }
 1432              		.loc 1 334 9
 334:src/kernel.c  **** }
 1433              		.loc 1 334 16 is_stmt 0
 1434 0904 93040000 		li	s1,0
 1435              	.L104:
 335:src/kernel.c  **** extern void put_uart1(char c);
 1436              		.loc 1 335 1
 1437 0908 13850400 		mv	a0,s1
 1438 090c 83308101 		ld	ra,24(sp)
 1439              		.cfi_remember_state
 1440              		.cfi_restore 1
 1441 0910 03340101 		ld	s0,16(sp)
 1442              		.cfi_restore 8
 1443              		.cfi_def_cfa 2, 32
 1444 0914 83348100 		ld	s1,8(sp)
 1445              		.cfi_restore 9
 1446 0918 13010102 		addi	sp,sp,32
 1447              		.cfi_def_cfa_offset 0
 1448 091c 67800000 		jr	ra
 1449              	.LVL114:
 1450              	.L106:
 1451              		.cfi_restore_state
 1452 0920 93040500 		mv	s1,a0
 331:src/kernel.c  ****         timeSliceCounter=0;
 1453              		.loc 1 331 22 is_stmt 1 discriminator 1
 1454 0924 13057004 		li	a0,71
 1455              	.LVL115:
 1456 0928 97000000 		call	putc1
 1456      E7800000 
 1457              	.LVL116:
 331:src/kernel.c  ****         timeSliceCounter=0;
GAS LISTING /tmp/ccCr5Wow.s 			page 39


 1458              		.loc 1 331 33 discriminator 1
 331:src/kernel.c  ****         timeSliceCounter=0;
 1459              		.loc 1 331 40 is_stmt 0 discriminator 1
 1460 0930 6FF09FFD 		j	.L104
 1461              		.cfi_endproc
 1462              	.LFE24:
 1464              		.align	2
 1465              		.globl	handleblocked
 1467              	handleblocked:
 1468              	.LFB28:
 412:src/kernel.c  **** void userMain();
 413:src/kernel.c  **** extern blist* blend;
 414:src/kernel.c  **** void handleblocked() {
 1469              		.loc 1 414 22 is_stmt 1
 1470              		.cfi_startproc
 1471 0934 130101FD 		addi	sp,sp,-48
 1472              		.cfi_def_cfa_offset 48
 1473 0938 23341102 		sd	ra,40(sp)
 1474 093c 23308102 		sd	s0,32(sp)
 1475 0940 233C9100 		sd	s1,24(sp)
 1476 0944 23382101 		sd	s2,16(sp)
 1477 0948 23343101 		sd	s3,8(sp)
 1478 094c 23304101 		sd	s4,0(sp)
 1479              		.cfi_offset 1, -8
 1480              		.cfi_offset 8, -16
 1481              		.cfi_offset 9, -24
 1482              		.cfi_offset 18, -32
 1483              		.cfi_offset 19, -40
 1484              		.cfi_offset 20, -48
 1485 0950 13040103 		addi	s0,sp,48
 1486              		.cfi_def_cfa 8, 0
 415:src/kernel.c  **** 
 416:src/kernel.c  ****     if (blocked) {
 1487              		.loc 1 416 5
 1488              		.loc 1 416 9 is_stmt 0
 1489 0954 97040000 		ld	s1,blocked
 1489      83B40400 
 1490              		.loc 1 416 8
 1491 095c 638E040C 		beqz	s1,.L107
 1492              	.LBB60:
 417:src/kernel.c  ****        blist *b , *prev = NULL;
 418:src/kernel.c  **** 
 419:src/kernel.c  ****           /*   putc1('\n');
 420:src/kernel.c  ****             for (b = blocked; b != NULL; b = b->next) {
 421:src/kernel.c  ****                 printaddr(b->data->id);
 422:src/kernel.c  ****                 putc1(' ');
 423:src/kernel.c  **** 
 424:src/kernel.c  ****             }
 425:src/kernel.c  ****             putc1('\n');
 426:src/kernel.c  ****             for (b = blocked; b != NULL; b = b->next) {
 427:src/kernel.c  ****                 printaddr(b->time);
 428:src/kernel.c  ****                 putc1(' ');
 429:src/kernel.c  **** 
 430:src/kernel.c  ****             }
 431:src/kernel.c  ****             putc1('\n');*/
 432:src/kernel.c  **** ///////////////////////////////////////////////////
 433:src/kernel.c  ****        for (b = blocked; b != NULL; b = b->next) {
GAS LISTING /tmp/ccCr5Wow.s 			page 40


 1493              		.loc 1 433 15
 1494 0960 13890400 		mv	s2,s1
 1495 0964 6F008000 		j	.L108
 1496              	.LVL117:
 1497              	.L110:
 1498              		.loc 1 433 37 is_stmt 1 discriminator 2
 1499              		.loc 1 433 39 is_stmt 0 discriminator 2
 1500 0968 03390901 		ld	s2,16(s2)
 1501              	.LVL118:
 1502              	.L108:
 1503              		.loc 1 433 26 is_stmt 1 discriminator 1
 1504              		.loc 1 433 8 is_stmt 0 discriminator 1
 1505 096c 630C0900 		beqz	s2,.L122
 434:src/kernel.c  ****             if (b->time > 0) b->time--;
 1506              		.loc 1 434 13 is_stmt 1
 1507              		.loc 1 434 18 is_stmt 0
 1508 0970 83378900 		ld	a5,8(s2)
 1509              		.loc 1 434 16
 1510 0974 E38A07FE 		beqz	a5,.L110
 1511              		.loc 1 434 30 is_stmt 1 discriminator 1
 1512              		.loc 1 434 37 is_stmt 0 discriminator 1
 1513 0978 9387F7FF 		addi	a5,a5,-1
 1514 097c 2334F900 		sd	a5,8(s2)
 1515 0980 6FF09FFE 		j	.L110
 1516              	.L122:
 417:src/kernel.c  ****        blist *b , *prev = NULL;
 1517              		.loc 1 417 20
 1518 0984 93090900 		mv	s3,s2
 1519 0988 6F008007 		j	.L112
 1520              	.LVL119:
 1521              	.L124:
 1522              	.LBB61:
 435:src/kernel.c  ****         }
 436:src/kernel.c  ****        b = blocked;
 437:src/kernel.c  ****         while (b) {
 438:src/kernel.c  ****             if (b->time == 0) {
 439:src/kernel.c  ****                 blist* tmp = b;
 440:src/kernel.c  **** 
 441:src/kernel.c  ****                 if (prev == NULL) {
 442:src/kernel.c  ****                     if (b == blend) {
 1523              		.loc 1 442 21 is_stmt 1
 1524              		.loc 1 442 27 is_stmt 0
 1525 098c 97070000 		ld	a5,blend
 1525      83B70700 
 1526              		.loc 1 442 24
 1527 0994 63809702 		beq	a5,s1,.L123
 443:src/kernel.c  ****                         blocked = blend = NULL;
 444:src/kernel.c  ****                         b = NULL;
 445:src/kernel.c  ****                     } else {
 446:src/kernel.c  ****                         blocked = blocked->next;
 1528              		.loc 1 446 25 is_stmt 1
 1529              		.loc 1 446 42 is_stmt 0
 1530 0998 97070000 		lla	a5,blocked
 1530      93870700 
 1531 09a0 03B70700 		ld	a4,0(a5)
 1532 09a4 03370701 		ld	a4,16(a4)
 1533              		.loc 1 446 33
GAS LISTING /tmp/ccCr5Wow.s 			page 41


 1534 09a8 23B0E700 		sd	a4,0(a5)
 447:src/kernel.c  ****                         b = b->next;
 1535              		.loc 1 447 25 is_stmt 1
 1536              		.loc 1 447 27 is_stmt 0
 1537 09ac 03BA0401 		ld	s4,16(s1)
 1538              	.LVL120:
 1539 09b0 6F00C002 		j	.L116
 1540              	.LVL121:
 1541              	.L123:
 443:src/kernel.c  ****                         blocked = blend = NULL;
 1542              		.loc 1 443 25 is_stmt 1
 443:src/kernel.c  ****                         blocked = blend = NULL;
 1543              		.loc 1 443 41 is_stmt 0
 1544 09b4 97070000 		sd	zero,blend,a5
 1544      23B00700 
 443:src/kernel.c  ****                         blocked = blend = NULL;
 1545              		.loc 1 443 33
 1546 09bc 97070000 		sd	zero,blocked,a5
 1546      23B00700 
 444:src/kernel.c  ****                     } else {
 1547              		.loc 1 444 25 is_stmt 1
 1548              	.LVL122:
 444:src/kernel.c  ****                     } else {
 1549              		.loc 1 444 27 is_stmt 0
 1550 09c4 138A0900 		mv	s4,s3
 1551 09c8 6F004001 		j	.L116
 1552              	.LVL123:
 1553              	.L125:
 448:src/kernel.c  ****                     }
 449:src/kernel.c  ****                 } else {
 450:src/kernel.c  ****                     if (b == blend) {
 451:src/kernel.c  ****                         blend = prev;
 1554              		.loc 1 451 25 is_stmt 1
 1555              		.loc 1 451 31 is_stmt 0
 1556 09cc 97070000 		sd	s3,blend,a5
 1556      23B03701 
 452:src/kernel.c  ****                         blend->next=NULL;
 1557              		.loc 1 452 25 is_stmt 1
 1558              		.loc 1 452 36 is_stmt 0
 1559 09d4 23B80900 		sd	zero,16(s3)
 453:src/kernel.c  ****                         b = NULL;
 1560              		.loc 1 453 25 is_stmt 1
 1561              	.LVL124:
 1562              		.loc 1 453 27 is_stmt 0
 1563 09d8 130A0900 		mv	s4,s2
 1564              	.LVL125:
 1565              	.L116:
 454:src/kernel.c  ****                     } else {
 455:src/kernel.c  ****                         prev->next = b->next;
 456:src/kernel.c  ****                         b = b->next;
 457:src/kernel.c  ****                     }
 458:src/kernel.c  ****                 }
 459:src/kernel.c  ****                 thread_t data = tmp->data;
 1566              		.loc 1 459 17 is_stmt 1
 1567              		.loc 1 459 26 is_stmt 0
 1568 09dc 03B50400 		ld	a0,0(s1)
 1569              	.LVL126:
GAS LISTING /tmp/ccCr5Wow.s 			page 42


 460:src/kernel.c  ****                 data->state = READY;
 1570              		.loc 1 460 17 is_stmt 1
 1571              		.loc 1 460 29 is_stmt 0
 1572 09e0 93071000 		li	a5,1
 1573 09e4 232CF500 		sw	a5,24(a0)
 461:src/kernel.c  ****                 sc_put(data);
 1574              		.loc 1 461 17 is_stmt 1
 1575 09e8 97000000 		call	sc_put
 1575      E7800000 
 1576              	.LVL127:
 462:src/kernel.c  ****                 __mem_free(tmp);
 1577              		.loc 1 462 17
 1578 09f0 13850400 		mv	a0,s1
 1579 09f4 97000000 		call	__mem_free
 1579      E7800000 
 1580              	.LVL128:
 1581              	.LBE61:
 1582 09fc 93040A00 		mv	s1,s4
 1583              	.LVL129:
 1584              	.L112:
 437:src/kernel.c  ****             if (b->time == 0) {
 1585              		.loc 1 437 15
 1586 0a00 638C0402 		beqz	s1,.L107
 438:src/kernel.c  ****                 blist* tmp = b;
 1587              		.loc 1 438 13
 438:src/kernel.c  ****                 blist* tmp = b;
 1588              		.loc 1 438 18 is_stmt 0
 1589 0a04 83B78400 		ld	a5,8(s1)
 438:src/kernel.c  ****                 blist* tmp = b;
 1590              		.loc 1 438 16
 1591 0a08 63920702 		bnez	a5,.L113
 1592              	.LBB62:
 439:src/kernel.c  **** 
 1593              		.loc 1 439 17 is_stmt 1
 1594              	.LVL130:
 441:src/kernel.c  ****                     if (b == blend) {
 1595              		.loc 1 441 17
 441:src/kernel.c  ****                     if (b == blend) {
 1596              		.loc 1 441 20 is_stmt 0
 1597 0a0c E38009F8 		beqz	s3,.L124
 450:src/kernel.c  ****                         blend = prev;
 1598              		.loc 1 450 21 is_stmt 1
 450:src/kernel.c  ****                         blend = prev;
 1599              		.loc 1 450 27 is_stmt 0
 1600 0a10 97070000 		ld	a5,blend
 1600      83B70700 
 450:src/kernel.c  ****                         blend = prev;
 1601              		.loc 1 450 24
 1602 0a18 E38A97FA 		beq	a5,s1,.L125
 455:src/kernel.c  ****                         b = b->next;
 1603              		.loc 1 455 25 is_stmt 1
 455:src/kernel.c  ****                         b = b->next;
 1604              		.loc 1 455 39 is_stmt 0
 1605 0a1c 83B70401 		ld	a5,16(s1)
 455:src/kernel.c  ****                         b = b->next;
 1606              		.loc 1 455 36
 1607 0a20 23B8F900 		sd	a5,16(s3)
GAS LISTING /tmp/ccCr5Wow.s 			page 43


 456:src/kernel.c  ****                     }
 1608              		.loc 1 456 25 is_stmt 1
 456:src/kernel.c  ****                     }
 1609              		.loc 1 456 27 is_stmt 0
 1610 0a24 03BA0401 		ld	s4,16(s1)
 1611              	.LVL131:
 1612 0a28 6FF05FFB 		j	.L116
 1613              	.LVL132:
 1614              	.L113:
 1615              	.LBE62:
 463:src/kernel.c  ****             } else {
 464:src/kernel.c  ****                 prev = b;
 1616              		.loc 1 464 17 is_stmt 1
 465:src/kernel.c  ****                 b = b->next;
 1617              		.loc 1 465 17
 464:src/kernel.c  ****                 b = b->next;
 1618              		.loc 1 464 22 is_stmt 0
 1619 0a2c 93890400 		mv	s3,s1
 1620              		.loc 1 465 19
 1621 0a30 83B40401 		ld	s1,16(s1)
 1622              	.LVL133:
 1623 0a34 6FF0DFFC 		j	.L112
 1624              	.LVL134:
 1625              	.L107:
 1626              	.LBE60:
 466:src/kernel.c  ****             }
 467:src/kernel.c  ****         }
 468:src/kernel.c  **** 
 469:src/kernel.c  ****     }
 470:src/kernel.c  **** 
 471:src/kernel.c  **** }
 1627              		.loc 1 471 1
 1628 0a38 83308102 		ld	ra,40(sp)
 1629              		.cfi_restore 1
 1630 0a3c 03340102 		ld	s0,32(sp)
 1631              		.cfi_restore 8
 1632              		.cfi_def_cfa 2, 48
 1633 0a40 83348101 		ld	s1,24(sp)
 1634              		.cfi_restore 9
 1635 0a44 03390101 		ld	s2,16(sp)
 1636              		.cfi_restore 18
 1637 0a48 83398100 		ld	s3,8(sp)
 1638              		.cfi_restore 19
 1639 0a4c 033A0100 		ld	s4,0(sp)
 1640              		.cfi_restore 20
 1641 0a50 13010103 		addi	sp,sp,48
 1642              		.cfi_def_cfa_offset 0
 1643 0a54 67800000 		jr	ra
 1644              		.cfi_endproc
 1645              	.LFE28:
 1647              		.align	2
 1648              		.globl	printc
 1650              	printc:
 1651              	.LFB29:
 472:src/kernel.c  **** void printc(char c){
 1652              		.loc 1 472 20 is_stmt 1
 1653              		.cfi_startproc
GAS LISTING /tmp/ccCr5Wow.s 			page 44


 1654              	.LVL135:
 1655 0a58 130101FF 		addi	sp,sp,-16
 1656              		.cfi_def_cfa_offset 16
 1657 0a5c 23348100 		sd	s0,8(sp)
 1658              		.cfi_offset 8, -8
 1659 0a60 13040101 		addi	s0,sp,16
 1660              		.cfi_def_cfa 8, 0
 473:src/kernel.c  **** 
 474:src/kernel.c  ****     uint8 status = *(uint8*)CONSOLE_STATUS;
 1661              		.loc 1 474 5
 1662              		.loc 1 474 21 is_stmt 0
 1663 0a64 97070000 		ld	a5,CONSOLE_STATUS
 1663      83B70700 
 1664              		.loc 1 474 11
 1665 0a6c 83C70700 		lbu	a5,0(a5)
 1666              	.LVL136:
 475:src/kernel.c  ****     if ((status & CONSOLE_TX_STATUS_BIT)) {
 1667              		.loc 1 475 5 is_stmt 1
 1668              		.loc 1 475 8 is_stmt 0
 1669 0a70 93F70702 		andi	a5,a5,32
 1670              	.LVL137:
 1671 0a74 63880700 		beqz	a5,.L126
 476:src/kernel.c  **** 
 477:src/kernel.c  ****         //char c = get_uart2();
 478:src/kernel.c  ****         *((char *) (CONSOLE_TX_DATA)) = c;
 1672              		.loc 1 478 9 is_stmt 1
 1673              		.loc 1 478 11 is_stmt 0
 1674 0a78 97070000 		ld	a5,CONSOLE_TX_DATA
 1674      83B70700 
 1675              		.loc 1 478 39
 1676 0a80 2380A700 		sb	a0,0(a5)
 1677              	.LVL138:
 479:src/kernel.c  ****         status = *(uint8*)CONSOLE_STATUS;
 1678              		.loc 1 479 9 is_stmt 1
 1679              	.L126:
 480:src/kernel.c  ****     }
 481:src/kernel.c  **** 
 482:src/kernel.c  **** }
 1680              		.loc 1 482 1 is_stmt 0
 1681 0a84 03348100 		ld	s0,8(sp)
 1682              		.cfi_restore 8
 1683              		.cfi_def_cfa 2, 16
 1684 0a88 13010101 		addi	sp,sp,16
 1685              		.cfi_def_cfa_offset 0
 1686 0a8c 67800000 		jr	ra
 1687              		.cfi_endproc
 1688              	.LFE29:
 1690              		.align	2
 1691              		.globl	puthexdigit1
 1693              	puthexdigit1:
 1694              	.LFB30:
 483:src/kernel.c  **** void puthexdigit1(int a) {
 1695              		.loc 1 483 26 is_stmt 1
 1696              		.cfi_startproc
 1697              	.LVL139:
 1698 0a90 130101FF 		addi	sp,sp,-16
 1699              		.cfi_def_cfa_offset 16
GAS LISTING /tmp/ccCr5Wow.s 			page 45


 1700 0a94 23341100 		sd	ra,8(sp)
 1701 0a98 23308100 		sd	s0,0(sp)
 1702              		.cfi_offset 1, -8
 1703              		.cfi_offset 8, -16
 1704 0a9c 13040101 		addi	s0,sp,16
 1705              		.cfi_def_cfa 8, 0
 484:src/kernel.c  ****     if (a > 9)
 1706              		.loc 1 484 5
 1707              		.loc 1 484 8 is_stmt 0
 1708 0aa0 93079000 		li	a5,9
 1709 0aa4 63D2A702 		ble	a0,a5,.L130
 485:src/kernel.c  ****         printc('a'+ a - 10);
 1710              		.loc 1 485 9 is_stmt 1
 1711 0aa8 1B057505 		addiw	a0,a0,87
 1712              	.LVL140:
 1713 0aac 1375F50F 		andi	a0,a0,0xff
 1714              	.LVL141:
 1715 0ab0 97000000 		call	printc
 1715      E7800000 
 1716              	.LVL142:
 1717              	.L129:
 486:src/kernel.c  ****     else
 487:src/kernel.c  ****         printc('0'+ a);
 488:src/kernel.c  **** 
 489:src/kernel.c  **** }
 1718              		.loc 1 489 1 is_stmt 0
 1719 0ab8 83308100 		ld	ra,8(sp)
 1720              		.cfi_remember_state
 1721              		.cfi_restore 1
 1722 0abc 03340100 		ld	s0,0(sp)
 1723              		.cfi_restore 8
 1724              		.cfi_def_cfa 2, 16
 1725 0ac0 13010101 		addi	sp,sp,16
 1726              		.cfi_def_cfa_offset 0
 1727 0ac4 67800000 		jr	ra
 1728              	.LVL143:
 1729              	.L130:
 1730              		.cfi_restore_state
 487:src/kernel.c  **** 
 1731              		.loc 1 487 9 is_stmt 1
 1732 0ac8 1B050503 		addiw	a0,a0,48
 1733              	.LVL144:
 1734 0acc 1375F50F 		andi	a0,a0,0xff
 1735              	.LVL145:
 1736 0ad0 97000000 		call	printc
 1736      E7800000 
 1737              	.LVL146:
 1738              		.loc 1 489 1 is_stmt 0
 1739 0ad8 6FF01FFE 		j	.L129
 1740              		.cfi_endproc
 1741              	.LFE30:
 1743              		.align	2
 1744              		.globl	printaddr1
 1746              	printaddr1:
 1747              	.LFB31:
 490:src/kernel.c  **** void printaddr1(uintptr a) {
 1748              		.loc 1 490 28 is_stmt 1
GAS LISTING /tmp/ccCr5Wow.s 			page 46


 1749              		.cfi_startproc
 1750              	.LVL147:
 1751 0adc 130101FD 		addi	sp,sp,-48
 1752              		.cfi_def_cfa_offset 48
 1753 0ae0 23341102 		sd	ra,40(sp)
 1754 0ae4 23308102 		sd	s0,32(sp)
 1755 0ae8 233C9100 		sd	s1,24(sp)
 1756 0aec 23382101 		sd	s2,16(sp)
 1757 0af0 23343101 		sd	s3,8(sp)
 1758              		.cfi_offset 1, -8
 1759              		.cfi_offset 8, -16
 1760              		.cfi_offset 9, -24
 1761              		.cfi_offset 18, -32
 1762              		.cfi_offset 19, -40
 1763 0af4 13040103 		addi	s0,sp,48
 1764              		.cfi_def_cfa 8, 0
 1765 0af8 93090500 		mv	s3,a0
 491:src/kernel.c  ****     for (int i = 7; i >= 0; i--) {
 1766              		.loc 1 491 5
 1767              	.LBB63:
 1768              		.loc 1 491 10
 1769              	.LVL148:
 1770              		.loc 1 491 14 is_stmt 0
 1771 0afc 13097000 		li	s2,7
 1772              		.loc 1 491 5
 1773 0b00 6F000003 		j	.L134
 1774              	.LVL149:
 1775              	.L135:
 1776              	.LBB64:
 492:src/kernel.c  ****         int bajt = (a >> (i*8)) & 0xff;
 1777              		.loc 1 492 9 is_stmt 1 discriminator 3
 1778              		.loc 1 492 28 is_stmt 0 discriminator 3
 1779 0b04 9B173900 		slliw	a5,s2,3
 1780              		.loc 1 492 23 discriminator 3
 1781 0b08 B3D7F900 		srl	a5,s3,a5
 1782              		.loc 1 492 13 discriminator 3
 1783 0b0c 13F5F70F 		andi	a0,a5,0xff
 1784              	.LVL150:
 493:src/kernel.c  ****         int hi = bajt >> 4;
 1785              		.loc 1 493 9 is_stmt 1 discriminator 3
 494:src/kernel.c  ****         int lo = bajt & 0xf;
 1786              		.loc 1 494 9 discriminator 3
 1787              		.loc 1 494 13 is_stmt 0 discriminator 3
 1788 0b10 93F4F700 		andi	s1,a5,15
 1789              	.LVL151:
 495:src/kernel.c  ****         puthexdigit1(hi);
 1790              		.loc 1 495 9 is_stmt 1 discriminator 3
 1791 0b14 13554500 		srli	a0,a0,4
 1792              	.LVL152:
 1793 0b18 97000000 		call	puthexdigit1
 1793      E7800000 
 1794              	.LVL153:
 496:src/kernel.c  ****         puthexdigit1(lo);
 1795              		.loc 1 496 9 discriminator 3
 1796 0b20 13850400 		mv	a0,s1
 1797 0b24 97000000 		call	puthexdigit1
 1797      E7800000 
GAS LISTING /tmp/ccCr5Wow.s 			page 47


 1798              	.LVL154:
 1799              	.LBE64:
 491:src/kernel.c  ****         int bajt = (a >> (i*8)) & 0xff;
 1800              		.loc 1 491 29 discriminator 3
 491:src/kernel.c  ****         int bajt = (a >> (i*8)) & 0xff;
 1801              		.loc 1 491 30 is_stmt 0 discriminator 3
 1802 0b2c 1B09F9FF 		addiw	s2,s2,-1
 1803              	.LVL155:
 1804              	.L134:
 491:src/kernel.c  ****         int bajt = (a >> (i*8)) & 0xff;
 1805              		.loc 1 491 21 is_stmt 1 discriminator 1
 491:src/kernel.c  ****         int bajt = (a >> (i*8)) & 0xff;
 1806              		.loc 1 491 5 is_stmt 0 discriminator 1
 1807 0b30 E35A09FC 		bgez	s2,.L135
 1808              	.LBE63:
 497:src/kernel.c  ****     }
 498:src/kernel.c  **** }
 1809              		.loc 1 498 1
 1810 0b34 83308102 		ld	ra,40(sp)
 1811              		.cfi_restore 1
 1812 0b38 03340102 		ld	s0,32(sp)
 1813              		.cfi_restore 8
 1814              		.cfi_def_cfa 2, 48
 1815 0b3c 83348101 		ld	s1,24(sp)
 1816              		.cfi_restore 9
 1817 0b40 03390101 		ld	s2,16(sp)
 1818              		.cfi_restore 18
 1819              	.LVL156:
 1820 0b44 83398100 		ld	s3,8(sp)
 1821              		.cfi_restore 19
 1822              	.LVL157:
 1823 0b48 13010103 		addi	sp,sp,48
 1824              		.cfi_def_cfa_offset 0
 1825 0b4c 67800000 		jr	ra
 1826              		.cfi_endproc
 1827              	.LFE31:
 1829              		.align	2
 1830              		.globl	handleSupervisorTrap
 1832              	handleSupervisorTrap:
 1833              	.LFB32:
 499:src/kernel.c  **** extern sem_t ioSemEmpty1;
 500:src/kernel.c  **** uint64 handleSupervisorTrap(args* arg) {
 1834              		.loc 1 500 40 is_stmt 1
 1835              		.cfi_startproc
 1836              	.LVL158:
 1837 0b50 130101F8 		addi	sp,sp,-128
 1838              		.cfi_def_cfa_offset 128
 1839 0b54 233C1106 		sd	ra,120(sp)
 1840 0b58 23388106 		sd	s0,112(sp)
 1841 0b5c 23349106 		sd	s1,104(sp)
 1842 0b60 23302107 		sd	s2,96(sp)
 1843 0b64 233C3105 		sd	s3,88(sp)
 1844              		.cfi_offset 1, -8
 1845              		.cfi_offset 8, -16
 1846              		.cfi_offset 9, -24
 1847              		.cfi_offset 18, -32
 1848              		.cfi_offset 19, -40
GAS LISTING /tmp/ccCr5Wow.s 			page 48


 1849 0b68 13040108 		addi	s0,sp,128
 1850              		.cfi_def_cfa 8, 0
 1851 0b6c 13090500 		mv	s2,a0
 501:src/kernel.c  ****     //putc1('p');
 502:src/kernel.c  ****     uint64 scause;
 1852              		.loc 1 502 5
 503:src/kernel.c  ****     __asm__ volatile ("csrr %[scause], scause" : [scause] "=r"(scause));
 1853              		.loc 1 503 5
 1854              	#APP
 1855              	# 503 "src/kernel.c" 1
 504              	    if (scause == 0x0000000000000008UL || scause == 0x0000000000000009UL) {
 1856              		csrr s1, scause
 1857              	# 0 "" 2
 1858              	.LVL159:
 1859              		.loc 1 504 5
 1860              		.loc 1 504 40 is_stmt 0
 1861              	#NO_APP
 1862 0b74 138784FF 		addi	a4,s1,-8
 1863              		.loc 1 504 8
 1864 0b78 93071000 		li	a5,1
 1865 0b7c 63FEE70C 		bleu	a4,a5,.L163
 505:src/kernel.c  ****         // interrupt: no; cause code: environment call from U-mode(8) or S-mode(9)
 506:src/kernel.c  ****          uint64 volatile sepc = r_sepc() + 4;
 507:src/kernel.c  ****          uint64  volatile sstatus = r_sstatus();
 508:src/kernel.c  **** 
 509:src/kernel.c  ****         uint64 ret = arg->a0;
 510:src/kernel.c  **** 
 511:src/kernel.c  ****         switch (arg->a0) {
 512:src/kernel.c  ****             case (0x01): {
 513:src/kernel.c  **** 
 514:src/kernel.c  ****                 size_t velicina = arg->a1;
 515:src/kernel.c  ****                 ret = (uintptr)__mem_alloc(velicina);
 516:src/kernel.c  ****                 break;
 517:src/kernel.c  ****             }
 518:src/kernel.c  ****             case (0x02): {
 519:src/kernel.c  **** 
 520:src/kernel.c  ****                 void *chunk = (void *) arg->a1;
 521:src/kernel.c  ****                 ret = (uintptr)__mem_free(chunk);
 522:src/kernel.c  ****                 break;
 523:src/kernel.c  ****             }
 524:src/kernel.c  ****             case(0x11):{
 525:src/kernel.c  ****                // __putc('U');__putc('s');__putc('a');__putc('o');
 526:src/kernel.c  ****                 args* arg1=(args*)arg->a3;
 527:src/kernel.c  ****                 void(*pfunct)(void*)=(void(*)(void*))arg->a2;
 528:src/kernel.c  ****                 thread_t *thr=(thread_t *)arg->a1;
 529:src/kernel.c  ****                 ret= __thread_create(thr,pfunct,arg1);
 530:src/kernel.c  ****                 break;
 531:src/kernel.c  **** 
 532:src/kernel.c  ****             }
 533:src/kernel.c  ****             case(0x12):{
 534:src/kernel.c  ****               ret =  __thread_exit();
 535:src/kernel.c  ****               break;
 536:src/kernel.c  ****             }
 537:src/kernel.c  ****             case(0x13):{
 538:src/kernel.c  ****                // __putc('T');__putc('D');__putc('i');__putc('s');
 539:src/kernel.c  **** 
 540:src/kernel.c  ****                // mc_sstatus(SSTATUS_SIE);
GAS LISTING /tmp/ccCr5Wow.s 			page 49


 541:src/kernel.c  ****                 timeSliceCounter = 0;
 542:src/kernel.c  ****                 __thread_dispatch();
 543:src/kernel.c  ****                 //ms_sstatus(SSTATUS_SIE);
 544:src/kernel.c  ****                 break;
 545:src/kernel.c  ****             }
 546:src/kernel.c  ****             case(0x21):{
 547:src/kernel.c  ****                 ret=__sem_open((sem_t*)arg->a1,(unsigned)arg->a2);
 548:src/kernel.c  ****                 break;
 549:src/kernel.c  ****             }
 550:src/kernel.c  ****             case(0x22):{
 551:src/kernel.c  ****                 ret=__sem_close((sem_t)arg->a1);
 552:src/kernel.c  ****                 break;
 553:src/kernel.c  ****             }
 554:src/kernel.c  ****             case(0x23):{
 555:src/kernel.c  ****               //  __putc('T');__putc('D');__putc('i');__putc('s');
 556:src/kernel.c  **** 
 557:src/kernel.c  ****                 ret=__sem_wait((sem_t)arg->a1);
 558:src/kernel.c  ****                 break;
 559:src/kernel.c  ****             }
 560:src/kernel.c  ****             case(0x24):{
 561:src/kernel.c  ****                 ret=__sem_signal((sem_t)arg->a1);
 562:src/kernel.c  ****                 break;
 563:src/kernel.c  ****             }
 564:src/kernel.c  ****             case(0x31):{
 565:src/kernel.c  ****                 ret=__time_sleep((time_t)arg->a1);
 566:src/kernel.c  ****                 break;
 567:src/kernel.c  ****             }
 568:src/kernel.c  ****             case(0x42):{
 569:src/kernel.c  ****                 //__putc((char)arg->a1);
 570:src/kernel.c  ****                  putc1((char)arg->a1);
 571:src/kernel.c  ****                  //__thread_dispatch();
 572:src/kernel.c  ****                  break;
 573:src/kernel.c  ****             }
 574:src/kernel.c  ****             case(0x41):{
 575:src/kernel.c  **** 
 576:src/kernel.c  ****                 ret=getc1();
 577:src/kernel.c  ****                 //__putc(ret);
 578:src/kernel.c  ****                 break;
 579:src/kernel.c  ****             }
 580:src/kernel.c  ****             default:{
 581:src/kernel.c  ****                 break;
 582:src/kernel.c  ****             }
 583:src/kernel.c  **** 
 584:src/kernel.c  ****         }
 585:src/kernel.c  **** 
 586:src/kernel.c  ****         w_sstatus(sstatus);
 587:src/kernel.c  ****         w_sepc(sepc);
 588:src/kernel.c  **** 
 589:src/kernel.c  ****         return ret;
 590:src/kernel.c  ****     } else if (scause == 0x8000000000000001UL) {
 1866              		.loc 1 590 12 is_stmt 1
 1867              		.loc 1 590 15 is_stmt 0
 1868 0b80 9307F0FF 		li	a5,-1
 1869 0b84 9397F703 		slli	a5,a5,63
 1870 0b88 93871700 		addi	a5,a5,1
 1871 0b8c 638AF422 		beq	s1,a5,.L164
 591:src/kernel.c  ****         // interrupt: yes; cause code: supervisor software interrupt (CLINT; machine timer interrup
GAS LISTING /tmp/ccCr5Wow.s 			page 50


 592:src/kernel.c  **** 
 593:src/kernel.c  ****         handleblocked();
 594:src/kernel.c  ****         timeSliceCounter++;
 595:src/kernel.c  **** 
 596:src/kernel.c  **** 
 597:src/kernel.c  ****        if (timeSliceCounter >= running->timeslice)
 598:src/kernel.c  ****         {
 599:src/kernel.c  **** 
 600:src/kernel.c  ****             uint64 volatile sepc = r_sepc();
 601:src/kernel.c  ****             uint64 volatile sstatus = r_sstatus();
 602:src/kernel.c  ****             timeSliceCounter = 0;
 603:src/kernel.c  ****             __thread_dispatch();
 604:src/kernel.c  ****             w_sstatus(sstatus);
 605:src/kernel.c  ****             w_sepc(sepc);
 606:src/kernel.c  **** 
 607:src/kernel.c  ****         }
 608:src/kernel.c  ****         mc_sip(SIP_SSIP);
 609:src/kernel.c  ****         return arg->a0;
 610:src/kernel.c  **** 
 611:src/kernel.c  ****     } else if (scause == 0x8000000000000009UL) {
 1872              		.loc 1 611 12 is_stmt 1
 1873              		.loc 1 611 15 is_stmt 0
 1874 0b90 9307F0FF 		li	a5,-1
 1875 0b94 9397F703 		slli	a5,a5,63
 1876 0b98 93879700 		addi	a5,a5,9
 1877 0b9c 6382F42A 		beq	s1,a5,.L165
 1878              	.LBB65:
 612:src/kernel.c  ****         // interrupt: yes; cause code: supervisor external interrupt (PLIC; could be keyboard)
 613:src/kernel.c  **** 
 614:src/kernel.c  ****        // console_handler();
 615:src/kernel.c  **** 
 616:src/kernel.c  ****         int volatile irq = plic_claim();
 617:src/kernel.c  ****         if(irq==CONSOLE_IRQ){
 618:src/kernel.c  ****            volatile uint8 status = *(uint8*)CONSOLE_STATUS;
 619:src/kernel.c  ****             while (status & CONSOLE_RX_STATUS_BIT){
 620:src/kernel.c  **** 
 621:src/kernel.c  **** 
 622:src/kernel.c  ****                 volatile char c=*((char*)CONSOLE_RX_DATA);
 623:src/kernel.c  ****                 status=*(uint8*)CONSOLE_STATUS;
 624:src/kernel.c  ****                 if(c=='\r') c='\n';
 625:src/kernel.c  ****                     put_uart1(c);
 626:src/kernel.c  ****                     __sem_signal(ioSemEmpty1);
 627:src/kernel.c  **** 
 628:src/kernel.c  ****                 //putc1(c);
 629:src/kernel.c  **** 
 630:src/kernel.c  ****             }
 631:src/kernel.c  ****         }
 632:src/kernel.c  ****         plic_complete(irq);
 633:src/kernel.c  **** 
 634:src/kernel.c  **** 
 635:src/kernel.c  ****         return 0;
 636:src/kernel.c  ****     } else {
 637:src/kernel.c  **** 
 638:src/kernel.c  ****         // unexpected trap cause
 639:src/kernel.c  ****         uint64 volatile sepc = r_sepc();
 1879              		.loc 1 639 9 is_stmt 1
 1880              	.LBB66:
GAS LISTING /tmp/ccCr5Wow.s 			page 51


 1881              	.LBB67:
  41:src/kernel.c  ****     __asm__ volatile ("csrr %[sepc], sepc" : [sepc] "=r"(sepc));
 1882              		.loc 1 41 5
  42:src/kernel.c  ****     return sepc;
 1883              		.loc 1 42 5
 1884              	#APP
 1885              	# 42 "src/kernel.c" 1
 1886              		csrr a5, sepc
 1887              	# 0 "" 2
 1888              	#NO_APP
 1889 0ba4 2334F4FC 		sd	a5,-56(s0)
  43:src/kernel.c  **** }
 1890              		.loc 1 43 5
  43:src/kernel.c  **** }
 1891              		.loc 1 43 12 is_stmt 0
 1892 0ba8 833784FC 		ld	a5,-56(s0)
 1893              	.LBE67:
 1894              	.LBE66:
 1895              		.loc 1 639 25
 1896 0bac 2330F4FC 		sd	a5,-64(s0)
 640:src/kernel.c  ****         uint64 ra,sp;
 1897              		.loc 1 640 9 is_stmt 1
 641:src/kernel.c  ****         __asm__ volatile ("mv %0, ra" : "=r"(ra));
 1898              		.loc 1 641 9
 1899              	#APP
 1900              	# 641 "src/kernel.c" 1
 642              	        __asm__ volatile ("mv %0, sp" : "=r"(sp));
 1901              		mv a5, ra
 1902              	# 0 "" 2
 1903              	.LVL160:
 1904              		.loc 1 642 9
 1905              	# 642 "src/kernel.c" 1
 643              	        printc('\n');
 1906              		mv s3, sp
 1907              	# 0 "" 2
 1908              	.LVL161:
 1909              		.loc 1 643 9
 1910              	#NO_APP
 1911 0bb8 1305A000 		li	a0,10
 1912              	.LVL162:
 1913 0bbc 97000000 		call	printc
 1913      E7800000 
 1914              	.LVL163:
 644:src/kernel.c  ****         printaddr1(scause);
 1915              		.loc 1 644 9
 1916 0bc4 13850400 		mv	a0,s1
 1917 0bc8 97000000 		call	printaddr1
 1917      E7800000 
 1918              	.LVL164:
 645:src/kernel.c  ****         printc('\n');
 1919              		.loc 1 645 9
 1920 0bd0 1305A000 		li	a0,10
 1921 0bd4 97000000 		call	printc
 1921      E7800000 
 1922              	.LVL165:
 646:src/kernel.c  ****         printaddr1(sepc);
 1923              		.loc 1 646 9
GAS LISTING /tmp/ccCr5Wow.s 			page 52


 1924 0bdc 033504FC 		ld	a0,-64(s0)
 1925 0be0 97000000 		call	printaddr1
 1925      E7800000 
 1926              	.LVL166:
 647:src/kernel.c  ****         printc('\n');
 1927              		.loc 1 647 9
 1928 0be8 1305A000 		li	a0,10
 1929 0bec 97000000 		call	printc
 1929      E7800000 
 1930              	.LVL167:
 648:src/kernel.c  ****         printaddr1(sp);
 1931              		.loc 1 648 9
 1932 0bf4 13850900 		mv	a0,s3
 1933 0bf8 97000000 		call	printaddr1
 1933      E7800000 
 1934              	.LVL168:
 649:src/kernel.c  ****         printc('\n');
 1935              		.loc 1 649 9
 1936 0c00 1305A000 		li	a0,10
 1937 0c04 97000000 		call	printc
 1937      E7800000 
 1938              	.LVL169:
 650:src/kernel.c  ****         printaddr1(arg->a0);
 1939              		.loc 1 650 9
 1940 0c0c 03350900 		ld	a0,0(s2)
 1941 0c10 97000000 		call	printaddr1
 1941      E7800000 
 1942              	.LVL170:
 651:src/kernel.c  ****         printc('\n');
 1943              		.loc 1 651 9
 1944 0c18 1305A000 		li	a0,10
 1945 0c1c 97000000 		call	printc
 1945      E7800000 
 1946              	.LVL171:
 652:src/kernel.c  ****         printaddr1((uintptr)arg);
 1947              		.loc 1 652 9
 1948 0c24 13050900 		mv	a0,s2
 1949 0c28 97000000 		call	printaddr1
 1949      E7800000 
 1950              	.LVL172:
 653:src/kernel.c  ****         printc('\n');
 1951              		.loc 1 653 9
 1952 0c30 1305A000 		li	a0,10
 1953 0c34 97000000 		call	printc
 1953      E7800000 
 1954              	.LVL173:
 654:src/kernel.c  ****         printaddr1(running->context->ra);
 1955              		.loc 1 654 9
 1956              		.loc 1 654 27 is_stmt 0
 1957 0c3c 97070000 		ld	a5,running
 1957      83B70700 
 1958 0c44 83B78700 		ld	a5,8(a5)
 1959              		.loc 1 654 9
 1960 0c48 03B50700 		ld	a0,0(a5)
 1961 0c4c 97000000 		call	printaddr1
 1961      E7800000 
 1962              	.LVL174:
GAS LISTING /tmp/ccCr5Wow.s 			page 53


 1963              	.L161:
 655:src/kernel.c  **** 
 656:src/kernel.c  ****         for(;;);
 1964              		.loc 1 656 9 is_stmt 1 discriminator 1
 1965              		.loc 1 656 16 discriminator 1
 1966              		.loc 1 656 14 discriminator 1
 1967 0c54 6F000000 		j	.L161
 1968              	.LVL175:
 1969              	.L163:
 1970              	.LBE65:
 1971              	.LBB68:
 506:src/kernel.c  ****          uint64  volatile sstatus = r_sstatus();
 1972              		.loc 1 506 10
 1973              	.LBB69:
 1974              	.LBB70:
  41:src/kernel.c  ****     __asm__ volatile ("csrr %[sepc], sepc" : [sepc] "=r"(sepc));
 1975              		.loc 1 41 5
  42:src/kernel.c  ****     return sepc;
 1976              		.loc 1 42 5
 1977              	#APP
 1978              	# 42 "src/kernel.c" 1
 1979              		csrr a5, sepc
 1980              	# 0 "" 2
 1981              	#NO_APP
 1982 0c5c 233CF4FA 		sd	a5,-72(s0)
  43:src/kernel.c  **** }
 1983              		.loc 1 43 5
  43:src/kernel.c  **** }
 1984              		.loc 1 43 12 is_stmt 0
 1985 0c60 833784FB 		ld	a5,-72(s0)
 1986              	.LBE70:
 1987              	.LBE69:
 506:src/kernel.c  ****          uint64  volatile sstatus = r_sstatus();
 1988              		.loc 1 506 42
 1989 0c64 93874700 		addi	a5,a5,4
 506:src/kernel.c  ****          uint64  volatile sstatus = r_sstatus();
 1990              		.loc 1 506 26
 1991 0c68 2338F4F8 		sd	a5,-112(s0)
 507:src/kernel.c  **** 
 1992              		.loc 1 507 10 is_stmt 1
 1993              	.LBB71:
 1994              	.LBB72:
  31:src/kernel.c  ****     __asm__ volatile ("csrr %[sstatus], sstatus" : [sstatus] "=r"(sstatus));
 1995              		.loc 1 31 5
  32:src/kernel.c  ****     return sstatus;
 1996              		.loc 1 32 5
 1997              	#APP
 1998              	# 32 "src/kernel.c" 1
 1999              		csrr a5, sstatus
 2000              	# 0 "" 2
 2001              	#NO_APP
 2002 0c70 2338F4FA 		sd	a5,-80(s0)
  33:src/kernel.c  **** }
 2003              		.loc 1 33 5
  33:src/kernel.c  **** }
 2004              		.loc 1 33 12 is_stmt 0
 2005 0c74 833704FB 		ld	a5,-80(s0)
GAS LISTING /tmp/ccCr5Wow.s 			page 54


 2006              	.LBE72:
 2007              	.LBE71:
 507:src/kernel.c  **** 
 2008              		.loc 1 507 27
 2009 0c78 233CF4F8 		sd	a5,-104(s0)
 509:src/kernel.c  **** 
 2010              		.loc 1 509 9 is_stmt 1
 509:src/kernel.c  **** 
 2011              		.loc 1 509 16 is_stmt 0
 2012 0c7c 83340500 		ld	s1,0(a0)
 2013              	.LVL176:
 511:src/kernel.c  ****             case (0x01): {
 2014              		.loc 1 511 9 is_stmt 1
 2015 0c80 93072004 		li	a5,66
 2016 0c84 63E89702 		bgtu	s1,a5,.L139
 2017 0c88 93972400 		slli	a5,s1,2
 2018 0c8c 17070000 		lla	a4,.L141
 2018      13070700 
 2019              	.LVL177:
 2020 0c94 B387E700 		add	a5,a5,a4
 2021 0c98 83A70700 		lw	a5,0(a5)
 2022 0c9c B387E700 		add	a5,a5,a4
 2023 0ca0 67800700 		jr	a5
 2024              		.section	.rodata
 2025              		.align	2
 2026              		.align	2
 2027              	.L141:
 2028 0000 00000000 		.word	.L139-.L141
 2029 0004 00000000 		.word	.L152-.L141
 2030 0008 00000000 		.word	.L151-.L141
 2031 000c 00000000 		.word	.L139-.L141
 2032 0010 00000000 		.word	.L139-.L141
 2033 0014 00000000 		.word	.L139-.L141
 2034 0018 00000000 		.word	.L139-.L141
 2035 001c 00000000 		.word	.L139-.L141
 2036 0020 00000000 		.word	.L139-.L141
 2037 0024 00000000 		.word	.L139-.L141
 2038 0028 00000000 		.word	.L139-.L141
 2039 002c 00000000 		.word	.L139-.L141
 2040 0030 00000000 		.word	.L139-.L141
 2041 0034 00000000 		.word	.L139-.L141
 2042 0038 00000000 		.word	.L139-.L141
 2043 003c 00000000 		.word	.L139-.L141
 2044 0040 00000000 		.word	.L139-.L141
 2045 0044 00000000 		.word	.L150-.L141
 2046 0048 00000000 		.word	.L149-.L141
 2047 004c 00000000 		.word	.L148-.L141
 2048 0050 00000000 		.word	.L139-.L141
 2049 0054 00000000 		.word	.L139-.L141
 2050 0058 00000000 		.word	.L139-.L141
 2051 005c 00000000 		.word	.L139-.L141
 2052 0060 00000000 		.word	.L139-.L141
 2053 0064 00000000 		.word	.L139-.L141
 2054 0068 00000000 		.word	.L139-.L141
 2055 006c 00000000 		.word	.L139-.L141
 2056 0070 00000000 		.word	.L139-.L141
 2057 0074 00000000 		.word	.L139-.L141
GAS LISTING /tmp/ccCr5Wow.s 			page 55


 2058 0078 00000000 		.word	.L139-.L141
 2059 007c 00000000 		.word	.L139-.L141
 2060 0080 00000000 		.word	.L139-.L141
 2061 0084 00000000 		.word	.L147-.L141
 2062 0088 00000000 		.word	.L146-.L141
 2063 008c 00000000 		.word	.L145-.L141
 2064 0090 00000000 		.word	.L144-.L141
 2065 0094 00000000 		.word	.L139-.L141
 2066 0098 00000000 		.word	.L139-.L141
 2067 009c 00000000 		.word	.L139-.L141
 2068 00a0 00000000 		.word	.L139-.L141
 2069 00a4 00000000 		.word	.L139-.L141
 2070 00a8 00000000 		.word	.L139-.L141
 2071 00ac 00000000 		.word	.L139-.L141
 2072 00b0 00000000 		.word	.L139-.L141
 2073 00b4 00000000 		.word	.L139-.L141
 2074 00b8 00000000 		.word	.L139-.L141
 2075 00bc 00000000 		.word	.L139-.L141
 2076 00c0 00000000 		.word	.L139-.L141
 2077 00c4 00000000 		.word	.L143-.L141
 2078 00c8 00000000 		.word	.L139-.L141
 2079 00cc 00000000 		.word	.L139-.L141
 2080 00d0 00000000 		.word	.L139-.L141
 2081 00d4 00000000 		.word	.L139-.L141
 2082 00d8 00000000 		.word	.L139-.L141
 2083 00dc 00000000 		.word	.L139-.L141
 2084 00e0 00000000 		.word	.L139-.L141
 2085 00e4 00000000 		.word	.L139-.L141
 2086 00e8 00000000 		.word	.L139-.L141
 2087 00ec 00000000 		.word	.L139-.L141
 2088 00f0 00000000 		.word	.L139-.L141
 2089 00f4 00000000 		.word	.L139-.L141
 2090 00f8 00000000 		.word	.L139-.L141
 2091 00fc 00000000 		.word	.L139-.L141
 2092 0100 00000000 		.word	.L139-.L141
 2093 0104 00000000 		.word	.L142-.L141
 2094 0108 00000000 		.word	.L140-.L141
 2095              		.text
 2096              	.L152:
 2097              	.LBB73:
 514:src/kernel.c  ****                 ret = (uintptr)__mem_alloc(velicina);
 2098              		.loc 1 514 17
 2099              	.LVL178:
 515:src/kernel.c  ****                 break;
 2100              		.loc 1 515 17
 515:src/kernel.c  ****                 break;
 2101              		.loc 1 515 32 is_stmt 0
 2102 0ca4 03358500 		ld	a0,8(a0)
 2103              	.LVL179:
 2104 0ca8 97000000 		call	__mem_alloc
 2104      E7800000 
 2105              	.LVL180:
 2106 0cb0 93040500 		mv	s1,a0
 2107              	.LVL181:
 516:src/kernel.c  ****             }
 2108              		.loc 1 516 17 is_stmt 1
 2109              	.L139:
GAS LISTING /tmp/ccCr5Wow.s 			page 56


 2110              	.LBE73:
 586:src/kernel.c  ****         w_sepc(sepc);
 2111              		.loc 1 586 9
 2112 0cb4 833784F9 		ld	a5,-104(s0)
 2113              	.LVL182:
 2114              	.LBB74:
 2115              	.LBB75:
  37:src/kernel.c  **** }
 2116              		.loc 1 37 5
 2117              	#APP
 2118              	# 37 "src/kernel.c" 1
 2119              		csrw sstatus, a5
 2120              	# 0 "" 2
 2121              	.LVL183:
 2122              	#NO_APP
 2123              	.LBE75:
 2124              	.LBE74:
 587:src/kernel.c  **** 
 2125              		.loc 1 587 9
 2126 0cbc 833704F9 		ld	a5,-112(s0)
 2127              	.LVL184:
 2128              	.LBB76:
 2129              	.LBB77:
  27:src/kernel.c  **** }
 2130              		.loc 1 27 5
 2131              	#APP
 2132              	# 27 "src/kernel.c" 1
 2133              		csrw sepc, a5
 2134              	# 0 "" 2
 2135              	.LVL185:
 2136              	#NO_APP
 2137              	.LBE77:
 2138              	.LBE76:
 589:src/kernel.c  ****     } else if (scause == 0x8000000000000001UL) {
 2139              		.loc 1 589 9
 2140              	.L137:
 2141              	.LBE68:
 657:src/kernel.c  **** 
 658:src/kernel.c  ****     }
 659:src/kernel.c  ****     return arg->a0;
 660:src/kernel.c  **** 
 661:src/kernel.c  **** 
 662:src/kernel.c  **** }
 2142              		.loc 1 662 1 is_stmt 0
 2143 0cc4 13850400 		mv	a0,s1
 2144 0cc8 83308107 		ld	ra,120(sp)
 2145              		.cfi_remember_state
 2146              		.cfi_restore 1
 2147 0ccc 03340107 		ld	s0,112(sp)
 2148              		.cfi_restore 8
 2149              		.cfi_def_cfa 2, 128
 2150 0cd0 83348106 		ld	s1,104(sp)
 2151              		.cfi_restore 9
 2152 0cd4 03390106 		ld	s2,96(sp)
 2153              		.cfi_restore 18
 2154              	.LVL186:
 2155 0cd8 83398105 		ld	s3,88(sp)
GAS LISTING /tmp/ccCr5Wow.s 			page 57


 2156              		.cfi_restore 19
 2157 0cdc 13010108 		addi	sp,sp,128
 2158              		.cfi_def_cfa_offset 0
 2159 0ce0 67800000 		jr	ra
 2160              	.LVL187:
 2161              	.L151:
 2162              		.cfi_restore_state
 2163              	.LBB80:
 2164              	.LBB78:
 520:src/kernel.c  ****                 ret = (uintptr)__mem_free(chunk);
 2165              		.loc 1 520 17 is_stmt 1
 521:src/kernel.c  ****                 break;
 2166              		.loc 1 521 17
 521:src/kernel.c  ****                 break;
 2167              		.loc 1 521 32 is_stmt 0
 2168 0ce4 03358500 		ld	a0,8(a0)
 2169              	.LVL188:
 2170 0ce8 97000000 		call	__mem_free
 2170      E7800000 
 2171              	.LVL189:
 521:src/kernel.c  ****                 break;
 2172              		.loc 1 521 21
 2173 0cf0 93040500 		mv	s1,a0
 2174              	.LVL190:
 522:src/kernel.c  ****             }
 2175              		.loc 1 522 17 is_stmt 1
 2176 0cf4 6FF01FFC 		j	.L139
 2177              	.LVL191:
 2178              	.L150:
 2179              	.LBE78:
 2180              	.LBB79:
 526:src/kernel.c  ****                 void(*pfunct)(void*)=(void(*)(void*))arg->a2;
 2181              		.loc 1 526 17
 527:src/kernel.c  ****                 thread_t *thr=(thread_t *)arg->a1;
 2182              		.loc 1 527 17
 528:src/kernel.c  ****                 ret= __thread_create(thr,pfunct,arg1);
 2183              		.loc 1 528 17
 529:src/kernel.c  ****                 break;
 2184              		.loc 1 529 17
 529:src/kernel.c  ****                 break;
 2185              		.loc 1 529 22 is_stmt 0
 2186 0cf8 03368501 		ld	a2,24(a0)
 2187 0cfc 83350501 		ld	a1,16(a0)
 2188 0d00 03358500 		ld	a0,8(a0)
 2189              	.LVL192:
 2190 0d04 97000000 		call	__thread_create
 2190      E7800000 
 2191              	.LVL193:
 529:src/kernel.c  ****                 break;
 2192              		.loc 1 529 20
 2193 0d0c 93040500 		mv	s1,a0
 2194              	.LVL194:
 530:src/kernel.c  **** 
 2195              		.loc 1 530 17 is_stmt 1
 2196 0d10 6FF05FFA 		j	.L139
 2197              	.LVL195:
 2198              	.L149:
GAS LISTING /tmp/ccCr5Wow.s 			page 58


 2199              	.LBE79:
 534:src/kernel.c  ****               break;
 2200              		.loc 1 534 15
 534:src/kernel.c  ****               break;
 2201              		.loc 1 534 22 is_stmt 0
 2202 0d14 97000000 		call	__thread_exit
 2202      E7800000 
 2203              	.LVL196:
 534:src/kernel.c  ****               break;
 2204              		.loc 1 534 19
 2205 0d1c 93040500 		mv	s1,a0
 2206              	.LVL197:
 535:src/kernel.c  ****             }
 2207              		.loc 1 535 15 is_stmt 1
 2208 0d20 6FF05FF9 		j	.L139
 2209              	.LVL198:
 2210              	.L148:
 541:src/kernel.c  ****                 __thread_dispatch();
 2211              		.loc 1 541 17
 541:src/kernel.c  ****                 __thread_dispatch();
 2212              		.loc 1 541 34 is_stmt 0
 2213 0d24 97070000 		sd	zero,timeSliceCounter,a5
 2213      23B00700 
 542:src/kernel.c  ****                 //ms_sstatus(SSTATUS_SIE);
 2214              		.loc 1 542 17 is_stmt 1
 2215 0d2c 97000000 		call	__thread_dispatch
 2215      E7800000 
 2216              	.LVL199:
 544:src/kernel.c  ****             }
 2217              		.loc 1 544 17
 2218 0d34 6FF01FF8 		j	.L139
 2219              	.LVL200:
 2220              	.L147:
 547:src/kernel.c  ****                 break;
 2221              		.loc 1 547 17
 547:src/kernel.c  ****                 break;
 2222              		.loc 1 547 21 is_stmt 0
 2223 0d38 83250501 		lw	a1,16(a0)
 2224 0d3c 03358500 		ld	a0,8(a0)
 2225              	.LVL201:
 2226 0d40 97000000 		call	__sem_open
 2226      E7800000 
 2227              	.LVL202:
 547:src/kernel.c  ****                 break;
 2228              		.loc 1 547 20
 2229 0d48 93040500 		mv	s1,a0
 2230              	.LVL203:
 548:src/kernel.c  ****             }
 2231              		.loc 1 548 17 is_stmt 1
 2232 0d4c 6FF09FF6 		j	.L139
 2233              	.LVL204:
 2234              	.L146:
 551:src/kernel.c  ****                 break;
 2235              		.loc 1 551 17
 551:src/kernel.c  ****                 break;
 2236              		.loc 1 551 21 is_stmt 0
 2237 0d50 03358500 		ld	a0,8(a0)
GAS LISTING /tmp/ccCr5Wow.s 			page 59


 2238              	.LVL205:
 2239 0d54 97000000 		call	__sem_close
 2239      E7800000 
 2240              	.LVL206:
 551:src/kernel.c  ****                 break;
 2241              		.loc 1 551 20
 2242 0d5c 93040500 		mv	s1,a0
 2243              	.LVL207:
 552:src/kernel.c  ****             }
 2244              		.loc 1 552 17 is_stmt 1
 2245 0d60 6FF05FF5 		j	.L139
 2246              	.LVL208:
 2247              	.L145:
 557:src/kernel.c  ****                 break;
 2248              		.loc 1 557 17
 557:src/kernel.c  ****                 break;
 2249              		.loc 1 557 21 is_stmt 0
 2250 0d64 03358500 		ld	a0,8(a0)
 2251              	.LVL209:
 2252 0d68 97000000 		call	__sem_wait
 2252      E7800000 
 2253              	.LVL210:
 557:src/kernel.c  ****                 break;
 2254              		.loc 1 557 20
 2255 0d70 93040500 		mv	s1,a0
 2256              	.LVL211:
 558:src/kernel.c  ****             }
 2257              		.loc 1 558 17 is_stmt 1
 2258 0d74 6FF01FF4 		j	.L139
 2259              	.LVL212:
 2260              	.L144:
 561:src/kernel.c  ****                 break;
 2261              		.loc 1 561 17
 561:src/kernel.c  ****                 break;
 2262              		.loc 1 561 21 is_stmt 0
 2263 0d78 03358500 		ld	a0,8(a0)
 2264              	.LVL213:
 2265 0d7c 97000000 		call	__sem_signal
 2265      E7800000 
 2266              	.LVL214:
 561:src/kernel.c  ****                 break;
 2267              		.loc 1 561 20
 2268 0d84 93040500 		mv	s1,a0
 2269              	.LVL215:
 562:src/kernel.c  ****             }
 2270              		.loc 1 562 17 is_stmt 1
 2271 0d88 6FF0DFF2 		j	.L139
 2272              	.LVL216:
 2273              	.L143:
 565:src/kernel.c  ****                 break;
 2274              		.loc 1 565 17
 565:src/kernel.c  ****                 break;
 2275              		.loc 1 565 21 is_stmt 0
 2276 0d8c 03358500 		ld	a0,8(a0)
 2277              	.LVL217:
 2278 0d90 97000000 		call	__time_sleep
 2278      E7800000 
GAS LISTING /tmp/ccCr5Wow.s 			page 60


 2279              	.LVL218:
 565:src/kernel.c  ****                 break;
 2280              		.loc 1 565 20
 2281 0d98 93040500 		mv	s1,a0
 2282              	.LVL219:
 566:src/kernel.c  ****             }
 2283              		.loc 1 566 17 is_stmt 1
 2284 0d9c 6FF09FF1 		j	.L139
 2285              	.LVL220:
 2286              	.L140:
 570:src/kernel.c  ****                  //__thread_dispatch();
 2287              		.loc 1 570 18
 2288 0da0 03458500 		lbu	a0,8(a0)
 2289              	.LVL221:
 2290 0da4 97000000 		call	putc1
 2290      E7800000 
 2291              	.LVL222:
 572:src/kernel.c  ****             }
 2292              		.loc 1 572 18
 2293 0dac 6FF09FF0 		j	.L139
 2294              	.LVL223:
 2295              	.L142:
 576:src/kernel.c  ****                 //__putc(ret);
 2296              		.loc 1 576 17
 576:src/kernel.c  ****                 //__putc(ret);
 2297              		.loc 1 576 21 is_stmt 0
 2298 0db0 97000000 		call	getc1
 2298      E7800000 
 2299              	.LVL224:
 576:src/kernel.c  ****                 //__putc(ret);
 2300              		.loc 1 576 20
 2301 0db8 93040500 		mv	s1,a0
 2302              	.LVL225:
 578:src/kernel.c  ****             }
 2303              		.loc 1 578 17 is_stmt 1
 2304 0dbc 6FF09FEF 		j	.L139
 2305              	.LVL226:
 2306              	.L164:
 2307              	.LBE80:
 593:src/kernel.c  ****         timeSliceCounter++;
 2308              		.loc 1 593 9
 2309 0dc0 97000000 		call	handleblocked
 2309      E7800000 
 2310              	.LVL227:
 594:src/kernel.c  **** 
 2311              		.loc 1 594 9
 594:src/kernel.c  **** 
 2312              		.loc 1 594 25 is_stmt 0
 2313 0dc8 17070000 		lla	a4,timeSliceCounter
 2313      13070700 
 2314 0dd0 83370700 		ld	a5,0(a4)
 2315 0dd4 93871700 		addi	a5,a5,1
 2316 0dd8 2330F700 		sd	a5,0(a4)
 597:src/kernel.c  ****         {
 2317              		.loc 1 597 8 is_stmt 1
 597:src/kernel.c  ****         {
 2318              		.loc 1 597 39 is_stmt 0
GAS LISTING /tmp/ccCr5Wow.s 			page 61


 2319 0ddc 17070000 		ld	a4,running
 2319      03370700 
 2320 0de4 03370703 		ld	a4,48(a4)
 597:src/kernel.c  ****         {
 2321              		.loc 1 597 11
 2322 0de8 63FAE700 		bgeu	a5,a4,.L166
 2323              	.L155:
 608:src/kernel.c  ****         return arg->a0;
 2324              		.loc 1 608 9 is_stmt 1
 2325              	.LVL228:
 2326              	.LBB81:
 2327              	.LBB82:
  55:src/kernel.c  **** }
 2328              		.loc 1 55 5
 2329 0dec 93072000 		li	a5,2
 2330              	#APP
 2331              	# 55 "src/kernel.c" 1
 2332              		csrc sip, a5
 2333              	# 0 "" 2
 2334              	.LVL229:
 2335              	#NO_APP
 2336              	.LBE82:
 2337              	.LBE81:
 609:src/kernel.c  **** 
 2338              		.loc 1 609 9
 609:src/kernel.c  **** 
 2339              		.loc 1 609 19 is_stmt 0
 2340 0df4 83340900 		ld	s1,0(s2)
 2341              	.LVL230:
 2342 0df8 6FF0DFEC 		j	.L137
 2343              	.LVL231:
 2344              	.L166:
 2345              	.LBB83:
 600:src/kernel.c  ****             uint64 volatile sstatus = r_sstatus();
 2346              		.loc 1 600 13 is_stmt 1
 2347              	.LBB84:
 2348              	.LBB85:
  41:src/kernel.c  ****     __asm__ volatile ("csrr %[sepc], sepc" : [sepc] "=r"(sepc));
 2349              		.loc 1 41 5
  42:src/kernel.c  ****     return sepc;
 2350              		.loc 1 42 5
 2351              	#APP
 2352              	# 42 "src/kernel.c" 1
 2353              		csrr a5, sepc
 2354              	# 0 "" 2
 2355              	#NO_APP
 2356 0e00 2334F4FC 		sd	a5,-56(s0)
  43:src/kernel.c  **** }
 2357              		.loc 1 43 5
  43:src/kernel.c  **** }
 2358              		.loc 1 43 12 is_stmt 0
 2359 0e04 833784FC 		ld	a5,-56(s0)
 2360              	.LBE85:
 2361              	.LBE84:
 600:src/kernel.c  ****             uint64 volatile sstatus = r_sstatus();
 2362              		.loc 1 600 29
 2363 0e08 2330F4FA 		sd	a5,-96(s0)
GAS LISTING /tmp/ccCr5Wow.s 			page 62


 601:src/kernel.c  ****             timeSliceCounter = 0;
 2364              		.loc 1 601 13 is_stmt 1
 2365              	.LBB86:
 2366              	.LBB87:
  31:src/kernel.c  ****     __asm__ volatile ("csrr %[sstatus], sstatus" : [sstatus] "=r"(sstatus));
 2367              		.loc 1 31 5
  32:src/kernel.c  ****     return sstatus;
 2368              		.loc 1 32 5
 2369              	#APP
 2370              	# 32 "src/kernel.c" 1
 2371              		csrr a5, sstatus
 2372              	# 0 "" 2
 2373              	#NO_APP
 2374 0e10 2330F4FC 		sd	a5,-64(s0)
  33:src/kernel.c  **** }
 2375              		.loc 1 33 5
  33:src/kernel.c  **** }
 2376              		.loc 1 33 12 is_stmt 0
 2377 0e14 833704FC 		ld	a5,-64(s0)
 2378              	.LBE87:
 2379              	.LBE86:
 601:src/kernel.c  ****             timeSliceCounter = 0;
 2380              		.loc 1 601 29
 2381 0e18 2334F4FA 		sd	a5,-88(s0)
 602:src/kernel.c  ****             __thread_dispatch();
 2382              		.loc 1 602 13 is_stmt 1
 602:src/kernel.c  ****             __thread_dispatch();
 2383              		.loc 1 602 30 is_stmt 0
 2384 0e1c 97070000 		sd	zero,timeSliceCounter,a5
 2384      23B00700 
 603:src/kernel.c  ****             w_sstatus(sstatus);
 2385              		.loc 1 603 13 is_stmt 1
 2386 0e24 97000000 		call	__thread_dispatch
 2386      E7800000 
 2387              	.LVL232:
 604:src/kernel.c  ****             w_sepc(sepc);
 2388              		.loc 1 604 13
 2389 0e2c 833784FA 		ld	a5,-88(s0)
 2390              	.LVL233:
 2391              	.LBB88:
 2392              	.LBB89:
  37:src/kernel.c  **** }
 2393              		.loc 1 37 5
 2394              	#APP
 2395              	# 37 "src/kernel.c" 1
 2396              		csrw sstatus, a5
 2397              	# 0 "" 2
 2398              	.LVL234:
 2399              	#NO_APP
 2400              	.LBE89:
 2401              	.LBE88:
 605:src/kernel.c  **** 
 2402              		.loc 1 605 13
 2403 0e34 833704FA 		ld	a5,-96(s0)
 2404              	.LVL235:
 2405              	.LBB90:
 2406              	.LBB91:
GAS LISTING /tmp/ccCr5Wow.s 			page 63


  27:src/kernel.c  **** }
 2407              		.loc 1 27 5
 2408              	#APP
 2409              	# 27 "src/kernel.c" 1
  28:src/kernel.c  **** 
 2410              		csrw sepc, a5
 2411              	# 0 "" 2
 2412              		.loc 1 28 1 is_stmt 0
 2413              	#NO_APP
 2414 0e3c 6FF01FFB 		j	.L155
 2415              	.LVL236:
 2416              	.L165:
 2417              	.LBE91:
 2418              	.LBE90:
 2419              	.LBE83:
 2420              	.LBB92:
 616:src/kernel.c  ****         if(irq==CONSOLE_IRQ){
 2421              		.loc 1 616 9 is_stmt 1
 616:src/kernel.c  ****         if(irq==CONSOLE_IRQ){
 2422              		.loc 1 616 28 is_stmt 0
 2423 0e40 97000000 		call	plic_claim
 2423      E7800000 
 2424              	.LVL237:
 616:src/kernel.c  ****         if(irq==CONSOLE_IRQ){
 2425              		.loc 1 616 22
 2426 0e48 2326A4F8 		sw	a0,-116(s0)
 617:src/kernel.c  ****            volatile uint8 status = *(uint8*)CONSOLE_STATUS;
 2427              		.loc 1 617 9 is_stmt 1
 617:src/kernel.c  ****            volatile uint8 status = *(uint8*)CONSOLE_STATUS;
 2428              		.loc 1 617 15 is_stmt 0
 2429 0e4c 8327C4F8 		lw	a5,-116(s0)
 2430 0e50 9B870700 		sext.w	a5,a5
 617:src/kernel.c  ****            volatile uint8 status = *(uint8*)CONSOLE_STATUS;
 2431              		.loc 1 617 11
 2432 0e54 1307A000 		li	a4,10
 2433 0e58 638EE700 		beq	a5,a4,.L167
 2434              	.LVL238:
 2435              	.L157:
 632:src/kernel.c  **** 
 2436              		.loc 1 632 9 is_stmt 1
 2437 0e5c 0325C4F8 		lw	a0,-116(s0)
 2438 0e60 1B050500 		sext.w	a0,a0
 2439 0e64 97000000 		call	plic_complete
 2439      E7800000 
 2440              	.LVL239:
 635:src/kernel.c  ****     } else {
 2441              		.loc 1 635 9
 635:src/kernel.c  ****     } else {
 2442              		.loc 1 635 16 is_stmt 0
 2443 0e6c 93040000 		li	s1,0
 2444 0e70 6FF05FE5 		j	.L137
 2445              	.LVL240:
 2446              	.L167:
 2447              	.LBB93:
 618:src/kernel.c  ****             while (status & CONSOLE_RX_STATUS_BIT){
 2448              		.loc 1 618 12 is_stmt 1
 618:src/kernel.c  ****             while (status & CONSOLE_RX_STATUS_BIT){
GAS LISTING /tmp/ccCr5Wow.s 			page 64


 2449              		.loc 1 618 37 is_stmt 0
 2450 0e74 97040000 		ld	s1,CONSOLE_STATUS
 2450      83B40400 
 2451              	.LVL241:
 618:src/kernel.c  ****             while (status & CONSOLE_RX_STATUS_BIT){
 2452              		.loc 1 618 36
 2453 0e7c 83C70400 		lbu	a5,0(s1)
 618:src/kernel.c  ****             while (status & CONSOLE_RX_STATUS_BIT){
 2454              		.loc 1 618 27
 2455 0e80 2305F4F8 		sb	a5,-118(s0)
 619:src/kernel.c  **** 
 2456              		.loc 1 619 13 is_stmt 1
 619:src/kernel.c  **** 
 2457              		.loc 1 619 19 is_stmt 0
 2458 0e84 6F004002 		j	.L158
 2459              	.L159:
 2460              	.LBB94:
 625:src/kernel.c  ****                     __sem_signal(ioSemEmpty1);
 2461              		.loc 1 625 21 is_stmt 1
 2462 0e88 0345B4F8 		lbu	a0,-117(s0)
 2463 0e8c 1375F50F 		andi	a0,a0,0xff
 2464 0e90 97000000 		call	put_uart1
 2464      E7800000 
 2465              	.LVL242:
 626:src/kernel.c  **** 
 2466              		.loc 1 626 21
 2467 0e98 17050000 		ld	a0,ioSemEmpty1
 2467      03350500 
 2468 0ea0 97000000 		call	__sem_signal
 2468      E7800000 
 2469              	.LVL243:
 2470              	.L158:
 2471              	.LBE94:
 619:src/kernel.c  **** 
 2472              		.loc 1 619 19
 619:src/kernel.c  **** 
 2473              		.loc 1 619 27 is_stmt 0
 2474 0ea8 8347A4F8 		lbu	a5,-118(s0)
 619:src/kernel.c  **** 
 2475              		.loc 1 619 19
 2476 0eac 93F71700 		andi	a5,a5,1
 2477 0eb0 E38607FA 		beqz	a5,.L157
 2478              	.LBB95:
 622:src/kernel.c  ****                 status=*(uint8*)CONSOLE_STATUS;
 2479              		.loc 1 622 17 is_stmt 1
 622:src/kernel.c  ****                 status=*(uint8*)CONSOLE_STATUS;
 2480              		.loc 1 622 35 is_stmt 0
 2481 0eb4 97070000 		ld	a5,CONSOLE_RX_DATA
 2481      83B70700 
 622:src/kernel.c  ****                 status=*(uint8*)CONSOLE_STATUS;
 2482              		.loc 1 622 33
 2483 0ebc 83C70700 		lbu	a5,0(a5)
 622:src/kernel.c  ****                 status=*(uint8*)CONSOLE_STATUS;
 2484              		.loc 1 622 31
 2485 0ec0 A305F4F8 		sb	a5,-117(s0)
 623:src/kernel.c  ****                 if(c=='\r') c='\n';
 2486              		.loc 1 623 17 is_stmt 1
GAS LISTING /tmp/ccCr5Wow.s 			page 65


 623:src/kernel.c  ****                 if(c=='\r') c='\n';
 2487              		.loc 1 623 24 is_stmt 0
 2488 0ec4 83C70400 		lbu	a5,0(s1)
 623:src/kernel.c  ****                 if(c=='\r') c='\n';
 2489              		.loc 1 623 23
 2490 0ec8 2305F4F8 		sb	a5,-118(s0)
 624:src/kernel.c  ****                     put_uart1(c);
 2491              		.loc 1 624 17 is_stmt 1
 624:src/kernel.c  ****                     put_uart1(c);
 2492              		.loc 1 624 21 is_stmt 0
 2493 0ecc 8347B4F8 		lbu	a5,-117(s0)
 2494 0ed0 93F7F70F 		andi	a5,a5,0xff
 624:src/kernel.c  ****                     put_uart1(c);
 2495              		.loc 1 624 19
 2496 0ed4 1307D000 		li	a4,13
 2497 0ed8 E398E7FA 		bne	a5,a4,.L159
 624:src/kernel.c  ****                     put_uart1(c);
 2498              		.loc 1 624 29 is_stmt 1 discriminator 1
 624:src/kernel.c  ****                     put_uart1(c);
 2499              		.loc 1 624 30 is_stmt 0 discriminator 1
 2500 0edc 9307A000 		li	a5,10
 2501 0ee0 A305F4F8 		sb	a5,-117(s0)
 2502 0ee4 6FF05FFA 		j	.L159
 2503              	.LBE95:
 2504              	.LBE93:
 2505              	.LBE92:
 2506              		.cfi_endproc
 2507              	.LFE32:
 2509              		.align	2
 2510              		.globl	semTest
 2512              	semTest:
 2513              	.LFB33:
 663:src/kernel.c  **** 
 664:src/kernel.c  **** uint64 supervisorTrap();
 665:src/kernel.c  **** sem_t sem1;
 666:src/kernel.c  **** void semTest(){
 2514              		.loc 1 666 15 is_stmt 1
 2515              		.cfi_startproc
 2516 0ee8 130101FE 		addi	sp,sp,-32
 2517              		.cfi_def_cfa_offset 32
 2518 0eec 233C1100 		sd	ra,24(sp)
 2519 0ef0 23388100 		sd	s0,16(sp)
 2520 0ef4 23349100 		sd	s1,8(sp)
 2521              		.cfi_offset 1, -8
 2522              		.cfi_offset 8, -16
 2523              		.cfi_offset 9, -24
 2524 0ef8 13040102 		addi	s0,sp,32
 2525              		.cfi_def_cfa 8, 0
 667:src/kernel.c  **** 
 668:src/kernel.c  ****     //sem_open(&sem1,0);
 669:src/kernel.c  ****     for(int i = 0;i<3;i++){
 2526              		.loc 1 669 5
 2527              	.LBB96:
 2528              		.loc 1 669 9
 2529              	.LVL244:
 2530              		.loc 1 669 13 is_stmt 0
 2531 0efc 93040000 		li	s1,0
GAS LISTING /tmp/ccCr5Wow.s 			page 66


 2532              		.loc 1 669 5
 2533 0f00 6F008001 		j	.L169
 2534              	.LVL245:
 2535              	.L170:
 670:src/kernel.c  ****         sem_wait(sem1);
 2536              		.loc 1 670 9 is_stmt 1 discriminator 3
 2537 0f04 17050000 		ld	a0,sem1
 2537      03350500 
 2538 0f0c 97000000 		call	sem_wait
 2538      E7800000 
 2539              	.LVL246:
 669:src/kernel.c  ****         sem_wait(sem1);
 2540              		.loc 1 669 23 discriminator 3
 669:src/kernel.c  ****         sem_wait(sem1);
 2541              		.loc 1 669 24 is_stmt 0 discriminator 3
 2542 0f14 9B841400 		addiw	s1,s1,1
 2543              	.LVL247:
 2544              	.L169:
 669:src/kernel.c  ****         sem_wait(sem1);
 2545              		.loc 1 669 19 is_stmt 1 discriminator 1
 669:src/kernel.c  ****         sem_wait(sem1);
 2546              		.loc 1 669 5 is_stmt 0 discriminator 1
 2547 0f18 93072000 		li	a5,2
 2548 0f1c E3D497FE 		ble	s1,a5,.L170
 2549              	.LBE96:
 671:src/kernel.c  ****     }
 672:src/kernel.c  **** }
 2550              		.loc 1 672 1
 2551 0f20 83308101 		ld	ra,24(sp)
 2552              		.cfi_restore 1
 2553 0f24 03340101 		ld	s0,16(sp)
 2554              		.cfi_restore 8
 2555              		.cfi_def_cfa 2, 32
 2556 0f28 83348100 		ld	s1,8(sp)
 2557              		.cfi_restore 9
 2558              	.LVL248:
 2559 0f2c 13010102 		addi	sp,sp,32
 2560              		.cfi_def_cfa_offset 0
 2561 0f30 67800000 		jr	ra
 2562              		.cfi_endproc
 2563              	.LFE33:
 2565              		.align	2
 2566              		.globl	main
 2568              	main:
 2569              	.LFB34:
 673:src/kernel.c  **** 
 674:src/kernel.c  **** extern int sc_in(uint64 thr);
 675:src/kernel.c  **** extern void userMain();
 676:src/kernel.c  **** int main(){
 2570              		.loc 1 676 11 is_stmt 1
 2571              		.cfi_startproc
 2572 0f34 130101FE 		addi	sp,sp,-32
 2573              		.cfi_def_cfa_offset 32
 2574 0f38 233C1100 		sd	ra,24(sp)
 2575 0f3c 23388100 		sd	s0,16(sp)
 2576              		.cfi_offset 1, -8
 2577              		.cfi_offset 8, -16
GAS LISTING /tmp/ccCr5Wow.s 			page 67


 2578 0f40 13040102 		addi	s0,sp,32
 2579              		.cfi_def_cfa 8, 0
 677:src/kernel.c  **** 
 678:src/kernel.c  ****       mc_sip(SIP_SSIP);
 2580              		.loc 1 678 7
 2581              	.LVL249:
 2582              	.LBB97:
 2583              	.LBB98:
  55:src/kernel.c  **** }
 2584              		.loc 1 55 5
 2585 0f44 93072000 		li	a5,2
 2586              	#APP
 2587              	# 55 "src/kernel.c" 1
 2588              		csrc sip, a5
 2589              	# 0 "" 2
 2590              	.LVL250:
 2591              	#NO_APP
 2592              	.LBE98:
 2593              	.LBE97:
 679:src/kernel.c  ****       initmem();
 2594              		.loc 1 679 7
 2595 0f4c 97000000 		call	initmem
 2595      E7800000 
 2596              	.LVL251:
 680:src/kernel.c  ****       initBuffers();
 2597              		.loc 1 680 7
 2598 0f54 97000000 		call	initBuffers
 2598      E7800000 
 2599              	.LVL252:
 681:src/kernel.c  ****       int ret;
 2600              		.loc 1 681 7
 682:src/kernel.c  ****       thread_t uthr;
 2601              		.loc 1 682 7
 683:src/kernel.c  ****       ret=__thread_create(&uthr,&userMain,NULL);
 2602              		.loc 1 683 7
 2603              		.loc 1 683 11 is_stmt 0
 2604 0f5c 13060000 		li	a2,0
 2605 0f60 97050000 		lla	a1,userMain
 2605      93850500 
 2606 0f68 130584FE 		addi	a0,s0,-24
 2607 0f6c 97000000 		call	__thread_create
 2607      E7800000 
 2608              	.LVL253:
 684:src/kernel.c  ****       if(ret==-1){
 2609              		.loc 1 684 7 is_stmt 1
 2610              		.loc 1 684 9 is_stmt 0
 2611 0f74 9307F0FF 		li	a5,-1
 2612 0f78 6306F512 		beq	a0,a5,.L173
 685:src/kernel.c  ****         // putc('G');
 686:src/kernel.c  ****         return -1;
 687:src/kernel.c  ****       }
 688:src/kernel.c  ****       ret=__thread_create(&consolethr,&console_putc,NULL);
 2613              		.loc 1 688 7 is_stmt 1
 2614              		.loc 1 688 11 is_stmt 0
 2615 0f7c 13060000 		li	a2,0
 2616 0f80 97050000 		lla	a1,console_putc
 2616      93850500 
GAS LISTING /tmp/ccCr5Wow.s 			page 68


 2617 0f88 17050000 		lla	a0,consolethr
 2617      13050500 
 2618              	.LVL254:
 2619 0f90 97000000 		call	__thread_create
 2619      E7800000 
 2620              	.LVL255:
 689:src/kernel.c  ****       if(ret==-1){
 2621              		.loc 1 689 7 is_stmt 1
 2622              		.loc 1 689 9 is_stmt 0
 2623 0f98 9307F0FF 		li	a5,-1
 2624 0f9c 6304F510 		beq	a0,a5,.L173
 690:src/kernel.c  ****         //__putc('G');
 691:src/kernel.c  ****         return -1;
 692:src/kernel.c  ****       }
 693:src/kernel.c  ****       ret=__thread_create(NULL,NULL,NULL);
 2625              		.loc 1 693 7 is_stmt 1
 2626              		.loc 1 693 11 is_stmt 0
 2627 0fa0 13060000 		li	a2,0
 2628 0fa4 93050000 		li	a1,0
 2629 0fa8 13050000 		li	a0,0
 2630              	.LVL256:
 2631 0fac 97000000 		call	__thread_create
 2631      E7800000 
 2632              	.LVL257:
 694:src/kernel.c  ****       if(ret==-1) {
 2633              		.loc 1 694 7 is_stmt 1
 2634              		.loc 1 694 9 is_stmt 0
 2635 0fb4 9307F0FF 		li	a5,-1
 2636 0fb8 6306F50E 		beq	a0,a5,.L173
 695:src/kernel.c  ****          // __putc('G');
 696:src/kernel.c  ****           return -1;
 697:src/kernel.c  ****       }
 698:src/kernel.c  ****       running=mainthr;
 2637              		.loc 1 698 7 is_stmt 1
 2638              		.loc 1 698 14 is_stmt 0
 2639 0fbc 97070000 		ld	a5,mainthr
 2639      83B70700 
 2640 0fc4 17070000 		sd	a5,running,a4
 2640      2330F700 
 699:src/kernel.c  ****       ret=__thread_create(&idle,&idle_funct,NULL);
 2641              		.loc 1 699 7 is_stmt 1
 2642              		.loc 1 699 11 is_stmt 0
 2643 0fcc 13060000 		li	a2,0
 2644 0fd0 97050000 		lla	a1,idle_funct
 2644      93850500 
 2645 0fd8 17050000 		lla	a0,idle
 2645      13050500 
 2646              	.LVL258:
 2647 0fe0 97000000 		call	__thread_create
 2647      E7800000 
 2648              	.LVL259:
 700:src/kernel.c  ****       if(ret==-1){
 2649              		.loc 1 700 7 is_stmt 1
 2650              		.loc 1 700 9 is_stmt 0
 2651 0fe8 9307F0FF 		li	a5,-1
 2652 0fec 630CF50A 		beq	a0,a5,.L173
 701:src/kernel.c  ****          // __putc('G');
GAS LISTING /tmp/ccCr5Wow.s 			page 69


 702:src/kernel.c  ****           return -1;
 703:src/kernel.c  ****       }
 704:src/kernel.c  **** 
 705:src/kernel.c  ****         __sem_open(&ioSem,0);
 2653              		.loc 1 705 9 is_stmt 1
 2654 0ff0 93050000 		li	a1,0
 2655 0ff4 17050000 		lla	a0,ioSem
 2655      13050500 
 2656              	.LVL260:
 2657 0ffc 97000000 		call	__sem_open
 2657      E7800000 
 2658              	.LVL261:
 706:src/kernel.c  ****         __sem_open(&fullPutc,900000);
 2659              		.loc 1 706 9
 2660 1004 B7C50D00 		li	a1,901120
 2661 1008 938505BA 		addi	a1,a1,-1120
 2662 100c 17050000 		lla	a0,fullPutc
 2662      13050500 
 2663 1014 97000000 		call	__sem_open
 2663      E7800000 
 2664              	.LVL262:
 707:src/kernel.c  ****         __sem_open(&sem1,0);
 2665              		.loc 1 707 9
 2666 101c 93050000 		li	a1,0
 2667 1020 17050000 		lla	a0,sem1
 2667      13050500 
 2668 1028 97000000 		call	__sem_open
 2668      E7800000 
 2669              	.LVL263:
 708:src/kernel.c  ****         w_stvec((uintptr)supervisorTrap);
 2670              		.loc 1 708 9
 2671 1030 97070000 		lla	a5,supervisorTrap
 2671      93870700 
 2672              	.LVL264:
 2673              	.LBB99:
 2674              	.LBB100:
  19:src/kernel.c  **** }
 2675              		.loc 1 19 5
 2676              	#APP
 2677              	# 19 "src/kernel.c" 1
 2678              		csrw stvec, a5
 2679              	# 0 "" 2
 2680              	.LVL265:
 2681              	#NO_APP
 2682              	.LBE100:
 2683              	.LBE99:
 709:src/kernel.c  ****         ms_sstatus(SSTATUS_SIE);
 2684              		.loc 1 709 9
 2685              	.LBB101:
 2686              	.LBB102:
  23:src/kernel.c  **** }
 2687              		.loc 1 23 5
 2688 103c 93072000 		li	a5,2
 2689              	#APP
 2690              	# 23 "src/kernel.c" 1
 2691              		csrs sstatus, a5
 2692              	# 0 "" 2
GAS LISTING /tmp/ccCr5Wow.s 			page 70


 2693              	.LVL266:
 2694              	#NO_APP
 2695              	.LBE102:
 2696              	.LBE101:
 710:src/kernel.c  **** 
 711:src/kernel.c  ****        __thread_dispatch();
 2697              		.loc 1 711 8
 2698 1044 97000000 		call	__thread_dispatch
 2698      E7800000 
 2699              	.LVL267:
 712:src/kernel.c  ****         while (uthr->state!=DEAD){
 2700              		.loc 1 712 9
 2701              		.loc 1 712 15 is_stmt 0
 2702 104c 6F00C001 		j	.L174
 2703              	.L175:
 713:src/kernel.c  ****         //ms_sstatus(SSTATUS_SIE);
 714:src/kernel.c  ****             __sem_signal(sem1);
 2704              		.loc 1 714 13 is_stmt 1
 2705 1050 17050000 		ld	a0,sem1
 2705      03350500 
 2706 1058 97000000 		call	__sem_signal
 2706      E7800000 
 2707              	.LVL268:
 715:src/kernel.c  ****             __thread_dispatch();
 2708              		.loc 1 715 13
 2709 1060 97000000 		call	__thread_dispatch
 2709      E7800000 
 2710              	.LVL269:
 2711              	.L174:
 712:src/kernel.c  ****         while (uthr->state!=DEAD){
 2712              		.loc 1 712 15
 712:src/kernel.c  ****         while (uthr->state!=DEAD){
 2713              		.loc 1 712 20 is_stmt 0
 2714 1068 833784FE 		ld	a5,-24(s0)
 2715 106c 03A78701 		lw	a4,24(a5)
 712:src/kernel.c  ****         while (uthr->state!=DEAD){
 2716              		.loc 1 712 15
 2717 1070 93075000 		li	a5,5
 2718 1074 E31EF7FC 		bne	a4,a5,.L175
 2719 1078 6F00C001 		j	.L176
 2720              	.L177:
 716:src/kernel.c  **** 
 717:src/kernel.c  ****         }
 718:src/kernel.c  **** 
 719:src/kernel.c  ****     while(!isEmpty2()){
 720:src/kernel.c  ****         __sem_signal(ioSem);
 2721              		.loc 1 720 9 is_stmt 1
 2722 107c 17050000 		ld	a0,ioSem
 2722      03350500 
 2723 1084 97000000 		call	__sem_signal
 2723      E7800000 
 2724              	.LVL270:
 721:src/kernel.c  **** 
 722:src/kernel.c  ****         __thread_dispatch();
 2725              		.loc 1 722 9
 2726 108c 97000000 		call	__thread_dispatch
 2726      E7800000 
GAS LISTING /tmp/ccCr5Wow.s 			page 71


 2727              	.LVL271:
 2728              	.L176:
 719:src/kernel.c  ****         __sem_signal(ioSem);
 2729              		.loc 1 719 10
 719:src/kernel.c  ****         __sem_signal(ioSem);
 2730              		.loc 1 719 12 is_stmt 0
 2731 1094 97000000 		call	isEmpty2
 2731      E7800000 
 2732              	.LVL272:
 719:src/kernel.c  ****         __sem_signal(ioSem);
 2733              		.loc 1 719 10
 2734 109c E30005FE 		beqz	a0,.L177
 723:src/kernel.c  ****     }
 724:src/kernel.c  **** 
 725:src/kernel.c  **** 
 726:src/kernel.c  ****  return 0;
 2735              		.loc 1 726 9
 2736 10a0 13050000 		li	a0,0
 2737              	.L173:
 727:src/kernel.c  **** }
 2738              		.loc 1 727 1
 2739 10a4 83308101 		ld	ra,24(sp)
 2740              		.cfi_restore 1
 2741 10a8 03340101 		ld	s0,16(sp)
 2742              		.cfi_restore 8
 2743              		.cfi_def_cfa 2, 32
 2744 10ac 13010102 		addi	sp,sp,32
 2745              		.cfi_def_cfa_offset 0
 2746 10b0 67800000 		jr	ra
 2747              		.cfi_endproc
 2748              	.LFE34:
 2750              		.globl	sem1
 2751              		.globl	block
 2752              		.globl	semlock
 2753              		.globl	stopputc
 2754              		.globl	fullPutc
 2755              		.globl	ioSem
 2756              		.globl	consolethr
 2757              		.globl	mainthr
 2758              		.globl	idle
 2759              		.section	.sbss,"aw",@nobits
 2760              		.align	3
 2763              	sem1:
 2764 0000 00000000 		.zero	8
 2764      00000000 
 2767              	block:
 2768 0008 00000000 		.zero	4
 2771              	semlock:
 2772 000c 00000000 		.zero	4
 2775              	stopputc:
 2776 0010 00000000 		.zero	4
 2777 0014 00000000 		.zero	4
 2780              	fullPutc:
 2781 0018 00000000 		.zero	8
 2781      00000000 
 2784              	ioSem:
 2785 0020 00000000 		.zero	8
GAS LISTING /tmp/ccCr5Wow.s 			page 72


 2785      00000000 
 2788              	timeSliceCounter:
 2789 0028 00000000 		.zero	8
 2789      00000000 
 2792              	consolethr:
 2793 0030 00000000 		.zero	8
 2793      00000000 
 2796              	mainthr:
 2797 0038 00000000 		.zero	8
 2797      00000000 
 2800              	idle:
 2801 0040 00000000 		.zero	8
 2801      00000000 
 2804              	running:
 2805 0048 00000000 		.zero	8
 2805      00000000 
 2806              		.section	.sdata,"aw"
 2807              		.align	3
 2810              	stID:
 2811 0000 FFFFFFFF 		.dword	-1
 2811      FFFFFFFF 
 2812              		.text
 2813              	.Letext0:
 2814              		.file 2 "src/../h/../lib/hw.h"
 2815              		.file 3 "src/../h/syscall_c.h"
 2816              		.file 4 "src/../h/kernel.h"
GAS LISTING /tmp/ccCr5Wow.s 			page 73

