GAS LISTING /tmp/ccrW4pFQ.s 			page 1


   1              		.file	"sem.c"
   2              		.option nopic
   3              		.option norelax
   4              		.text
   5              	.Ltext0:
   6              		.cfi_sections	.debug_frame
   7              		.align	2
   8              		.globl	sem_close
  10              	sem_close:
  11              	.LFB0:
  12              		.file 1 "src/sem.c"
   1:src/sem.c     **** //
   2:src/sem.c     **** // Created by os on 7/28/22.
   3:src/sem.c     **** //
   4:src/sem.c     **** #include "../h/syscall_c.h"
   5:src/sem.c     **** #include "../lib/hw.h"
   6:src/sem.c     **** int sem_close (sem_t handle){
  13              		.loc 1 6 29
  14              		.cfi_startproc
  15              	.LVL0:
  16 0000 130101FF 		addi	sp,sp,-16
  17              		.cfi_def_cfa_offset 16
  18 0004 23348100 		sd	s0,8(sp)
  19              		.cfi_offset 8, -8
  20 0008 13040101 		addi	s0,sp,16
  21              		.cfi_def_cfa 8, 0
  22 000c 93070500 		mv	a5,a0
   7:src/sem.c     ****     int ret;
  23              		.loc 1 7 5
   8:src/sem.c     **** 
   9:src/sem.c     ****     asm volatile ("li a0, 0x22\n" // Broj poziva
  24              		.loc 1 9 5
  25              	#APP
  26              	# 9 "src/sem.c" 1
  10 0014 93850700 	                  "\tmv a1, %1\n"
  11 0018 73000000 	                  "\tecall\n"
  12 001c 93070500 	                  "\tmv %0, a0\n" // Povratna vrednost
  13              	            : "=r" (ret)
  14              	            : "r" (handle)
  27              		li a0, 0x22
  28              		mv a1, a5
  29              		ecall
  30              		mv a5, a0
  31              	
  32              	# 0 "" 2
  33              	.LVL1:
  15:src/sem.c     ****     , "r" (handle)
  16:src/sem.c     ****             : "a0", "a1");
  17:src/sem.c     **** 
  18:src/sem.c     ****     return ret;
  34              		.loc 1 18 5
  19:src/sem.c     **** }
  35              		.loc 1 19 1 is_stmt 0
  36              	#NO_APP
  37 0020 1B850700 		sext.w	a0,a5
  38 0024 03348100 		ld	s0,8(sp)
  39              		.cfi_restore 8
GAS LISTING /tmp/ccrW4pFQ.s 			page 2


  40              		.cfi_def_cfa 2, 16
  41 0028 13010101 		addi	sp,sp,16
  42              		.cfi_def_cfa_offset 0
  43 002c 67800000 		jr	ra
  44              		.cfi_endproc
  45              	.LFE0:
  47              		.align	2
  48              		.globl	sem_wait
  50              	sem_wait:
  51              	.LFB1:
  20:src/sem.c     **** int sem_wait (sem_t id){
  52              		.loc 1 20 24 is_stmt 1
  53              		.cfi_startproc
  54              	.LVL2:
  55 0030 130101FF 		addi	sp,sp,-16
  56              		.cfi_def_cfa_offset 16
  57 0034 23348100 		sd	s0,8(sp)
  58              		.cfi_offset 8, -8
  59 0038 13040101 		addi	s0,sp,16
  60              		.cfi_def_cfa 8, 0
  61 003c 93070500 		mv	a5,a0
  21:src/sem.c     ****     int ret;
  62              		.loc 1 21 5
  22:src/sem.c     **** 
  23:src/sem.c     ****     asm volatile ("li a0, 0x23\n" // Broj poziva
  63              		.loc 1 23 5
  64              	#APP
  65              	# 23 "src/sem.c" 1
  24 0044 93850700 	                  "\tmv a1, %1\n"
  25 0048 73000000 	                  "\tecall\n"
  26 004c 93070500 	                  "\tmv %0, a0\n" // Povratna vrednost
  27              	            : "=r" (ret)
  28              	            : "r" (id)
  66              		li a0, 0x23
  67              		mv a1, a5
  68              		ecall
  69              		mv a5, a0
  70              	
  71              	# 0 "" 2
  72              	.LVL3:
  29:src/sem.c     ****             : "a0", "a1");
  30:src/sem.c     **** 
  31:src/sem.c     ****     return ret;
  73              		.loc 1 31 5
  32:src/sem.c     **** }
  74              		.loc 1 32 1 is_stmt 0
  75              	#NO_APP
  76 0050 1B850700 		sext.w	a0,a5
  77 0054 03348100 		ld	s0,8(sp)
  78              		.cfi_restore 8
  79              		.cfi_def_cfa 2, 16
  80 0058 13010101 		addi	sp,sp,16
  81              		.cfi_def_cfa_offset 0
  82 005c 67800000 		jr	ra
  83              		.cfi_endproc
  84              	.LFE1:
  86              		.align	2
GAS LISTING /tmp/ccrW4pFQ.s 			page 3


  87              		.globl	sem_signal
  89              	sem_signal:
  90              	.LFB2:
  33:src/sem.c     **** int sem_signal (sem_t id){
  91              		.loc 1 33 26 is_stmt 1
  92              		.cfi_startproc
  93              	.LVL4:
  94 0060 130101FF 		addi	sp,sp,-16
  95              		.cfi_def_cfa_offset 16
  96 0064 23348100 		sd	s0,8(sp)
  97              		.cfi_offset 8, -8
  98 0068 13040101 		addi	s0,sp,16
  99              		.cfi_def_cfa 8, 0
 100 006c 93070500 		mv	a5,a0
  34:src/sem.c     ****     int ret;
 101              		.loc 1 34 5
  35:src/sem.c     **** 
  36:src/sem.c     ****     asm volatile ("li a0, 0x24\n" // Broj poziva
 102              		.loc 1 36 5
 103              	#APP
 104              	# 36 "src/sem.c" 1
  37 0074 93850700 	                  "\tmv a1, %1\n"
  38 0078 73000000 	                  "\tecall\n"
  39 007c 93070500 	                  "\tmv %0, a0\n" // Povratna vrednost
  40              	            : "=r" (ret)
  41              	            : "r" (id)
 105              		li a0, 0x24
 106              		mv a1, a5
 107              		ecall
 108              		mv a5, a0
 109              	
 110              	# 0 "" 2
 111              	.LVL5:
  42:src/sem.c     ****             : "a0", "a1");
  43:src/sem.c     **** 
  44:src/sem.c     ****     return ret;
 112              		.loc 1 44 5
  45:src/sem.c     **** }
 113              		.loc 1 45 1 is_stmt 0
 114              	#NO_APP
 115 0080 1B850700 		sext.w	a0,a5
 116 0084 03348100 		ld	s0,8(sp)
 117              		.cfi_restore 8
 118              		.cfi_def_cfa 2, 16
 119 0088 13010101 		addi	sp,sp,16
 120              		.cfi_def_cfa_offset 0
 121 008c 67800000 		jr	ra
 122              		.cfi_endproc
 123              	.LFE2:
 125              		.align	2
 126              		.globl	sem_open
 128              	sem_open:
 129              	.LFB3:
  46:src/sem.c     **** int sem_open (
  47:src/sem.c     ****         sem_t* handle,
  48:src/sem.c     ****         unsigned init
  49:src/sem.c     **** ){
GAS LISTING /tmp/ccrW4pFQ.s 			page 4


 130              		.loc 1 49 2 is_stmt 1
 131              		.cfi_startproc
 132              	.LVL6:
 133 0090 130101FF 		addi	sp,sp,-16
 134              		.cfi_def_cfa_offset 16
 135 0094 23348100 		sd	s0,8(sp)
 136              		.cfi_offset 8, -8
 137 0098 13040101 		addi	s0,sp,16
 138              		.cfi_def_cfa 8, 0
 139 009c 93070500 		mv	a5,a0
 140 00a0 13870500 		mv	a4,a1
  50:src/sem.c     ****     int ret;
 141              		.loc 1 50 5
  51:src/sem.c     **** 
  52:src/sem.c     ****     asm volatile ("li a0, 0x21\n" // Broj poziva
 142              		.loc 1 52 5
 143              	#APP
 144              	# 52 "src/sem.c" 1
  53 00a8 93850700 	                  "\tmv a1, %1\n"
  54 00ac 13060700 	                  "\tmv a2, %2\n"
  55 00b0 73000000 	                  "\tecall\n"
  56 00b4 93070500 	                  "\tmv %0, a0\n" // Povratna vrednost
  57              	            : "=r" (ret)
  58              	            :"r" (handle), "r" (init)
 145              		li a0, 0x21
 146              		mv a1, a5
 147              		mv a2, a4
 148              		ecall
 149              		mv a5, a0
 150              	
 151              	# 0 "" 2
 152              	.LVL7:
  59:src/sem.c     ****             : "a0", "a1","a2");
  60:src/sem.c     **** 
  61:src/sem.c     ****     return ret;
 153              		.loc 1 61 5
  62:src/sem.c     **** }
 154              		.loc 1 62 1 is_stmt 0
 155              	#NO_APP
 156 00b8 1B850700 		sext.w	a0,a5
 157 00bc 03348100 		ld	s0,8(sp)
 158              		.cfi_restore 8
 159              		.cfi_def_cfa 2, 16
 160 00c0 13010101 		addi	sp,sp,16
 161              		.cfi_def_cfa_offset 0
 162 00c4 67800000 		jr	ra
 163              		.cfi_endproc
 164              	.LFE3:
 166              		.align	2
 167              		.globl	time_sleep
 169              	time_sleep:
 170              	.LFB4:
  63:src/sem.c     **** int time_sleep (time_t time){
 171              		.loc 1 63 29 is_stmt 1
 172              		.cfi_startproc
 173              	.LVL8:
 174 00c8 130101FF 		addi	sp,sp,-16
GAS LISTING /tmp/ccrW4pFQ.s 			page 5


 175              		.cfi_def_cfa_offset 16
 176 00cc 23348100 		sd	s0,8(sp)
 177              		.cfi_offset 8, -8
 178 00d0 13040101 		addi	s0,sp,16
 179              		.cfi_def_cfa 8, 0
 180 00d4 93070500 		mv	a5,a0
  64:src/sem.c     ****     int ret;
 181              		.loc 1 64 5
  65:src/sem.c     **** 
  66:src/sem.c     ****     asm volatile ("li a0, 0x31\n" // Broj poziva
 182              		.loc 1 66 5
 183              	#APP
 184              	# 66 "src/sem.c" 1
  67 00dc 93850700 	                  "\tmv a1, %1\n"
  68 00e0 73000000 	                  "\tecall\n"
  69 00e4 93070500 	                  "\tmv %0, a0\n" // Povratna vrednost
  70              	            : "=r" (ret)
  71              	            :"r" (time)
 185              		li a0, 0x31
 186              		mv a1, a5
 187              		ecall
 188              		mv a5, a0
 189              	
 190              	# 0 "" 2
 191              	.LVL9:
  72:src/sem.c     ****             : "a0", "a1");
  73:src/sem.c     **** 
  74:src/sem.c     ****     return ret;
 192              		.loc 1 74 5
  75:src/sem.c     **** }...
 193              		.loc 1 75 1 is_stmt 0
 194              	#NO_APP
 195 00e8 1B850700 		sext.w	a0,a5
 196 00ec 03348100 		ld	s0,8(sp)
 197              		.cfi_restore 8
 198              		.cfi_def_cfa 2, 16
 199 00f0 13010101 		addi	sp,sp,16
 200              		.cfi_def_cfa_offset 0
 201 00f4 67800000 		jr	ra
 202              		.cfi_endproc
 203              	.LFE4:
 205              	.Letext0:
 206              		.file 2 "src/../h/../lib/hw.h"
 207              		.file 3 "src/../h/syscall_c.h"
GAS LISTING /tmp/ccrW4pFQ.s 			page 6

