GAS LISTING /tmp/cctTALjz.s 			page 1


   1              		.file	"thread.c"
   2              		.option nopic
   3              		.option norelax
   4              		.text
   5              	.Ltext0:
   6              		.cfi_sections	.debug_frame
   7              		.align	2
   8              		.globl	thread_dispatch
  10              	thread_dispatch:
  11              	.LFB0:
  12              		.file 1 "src/thread.c"
   1:src/thread.c  **** //
   2:src/thread.c  **** // Created by os on 7/27/22.
   3:src/thread.c  **** //
   4:src/thread.c  **** //#include "../h/kernel.h"
   5:src/thread.c  **** #include "../h/syscall_c.h"
   6:src/thread.c  **** #include "../lib/hw.h"
   7:src/thread.c  **** 
   8:src/thread.c  **** 
   9:src/thread.c  **** void thread_dispatch (){
  13              		.loc 1 9 24
  14              		.cfi_startproc
  15 0000 130101FF 		addi	sp,sp,-16
  16              		.cfi_def_cfa_offset 16
  17 0004 23348100 		sd	s0,8(sp)
  18              		.cfi_offset 8, -8
  19 0008 13040101 		addi	s0,sp,16
  20              		.cfi_def_cfa 8, 0
  10:src/thread.c  ****     asm volatile ("li a0, 0x13\n" // Broj poziva
  21              		.loc 1 10 5
  22              	#APP
  23              	# 10 "src/thread.c" 1
  11 0010 73000000 	                  "\tecall\n");
  12              	}
  13              	int thread_create(thread_t* handle,
  12:src/thread.c  **** int thread_create(thread_t* handle,
  24              		li a0, 0x13
  25              		ecall
  26              	
  27              	# 0 "" 2
  28              		.loc 1 12 1 is_stmt 0
  29              	#NO_APP
  30 0014 03348100 		ld	s0,8(sp)
  31              		.cfi_restore 8
  32              		.cfi_def_cfa 2, 16
  33 0018 13010101 		addi	sp,sp,16
  34              		.cfi_def_cfa_offset 0
  35 001c 67800000 		jr	ra
  36              		.cfi_endproc
  37              	.LFE0:
  39              		.align	2
  40              		.globl	thread_create
  42              	thread_create:
  43              	.LFB1:
  14:src/thread.c  ****                   void(*start_routine)(void*),
  15:src/thread.c  ****                   void* arg) {
  44              		.loc 1 15 30 is_stmt 1
GAS LISTING /tmp/cctTALjz.s 			page 2


  45              		.cfi_startproc
  46              	.LVL0:
  47 0020 130101FF 		addi	sp,sp,-16
  48              		.cfi_def_cfa_offset 16
  49 0024 23348100 		sd	s0,8(sp)
  50              		.cfi_offset 8, -8
  51 0028 13040101 		addi	s0,sp,16
  52              		.cfi_def_cfa 8, 0
  53 002c 93070500 		mv	a5,a0
  54 0030 13870500 		mv	a4,a1
  55 0034 13080600 		mv	a6,a2
  16:src/thread.c  ****     void *ret=(void*)0;
  56              		.loc 1 16 5
  57              	.LVL1:
  17:src/thread.c  **** 
  18:src/thread.c  ****     asm volatile ("li a0, 0x11\n" // Broj poziva
  58              		.loc 1 18 5
  59              	#APP
  60              	# 18 "src/thread.c" 1
  19 003c 93850700 	                  "\tmv a1, %1\n"
  20 0040 13060700 	                  "\tmv a2, %2\n"
  21 0044 93060800 	                  "\tmv a3, %3\n"
  22 0048 73000000 	                  "\tecall\n"
  23 004c 93070500 	                  "\tmv %0, a0\n" // Povratna vrednost
  24              	            : "=r" (ret)
  25              	            : "r" (handle)
  61              		li a0, 0x11
  62              		mv a1, a5
  63              		mv a2, a4
  64              		mv a3, a6
  65              		ecall
  66              		mv a5, a0
  67              	
  68              	# 0 "" 2
  69              	.LVL2:
  26:src/thread.c  ****     , "r" (start_routine)
  27:src/thread.c  ****     , "r" (arg)
  28:src/thread.c  ****             : "a0", "a1","a2","a3");
  29:src/thread.c  **** 
  30:src/thread.c  ****     return (uint64)ret;
  70              		.loc 1 30 5
  31:src/thread.c  **** }
  71              		.loc 1 31 1 is_stmt 0
  72              	#NO_APP
  73 0050 1B850700 		sext.w	a0,a5
  74 0054 03348100 		ld	s0,8(sp)
  75              		.cfi_restore 8
  76              		.cfi_def_cfa 2, 16
  77 0058 13010101 		addi	sp,sp,16
  78              		.cfi_def_cfa_offset 0
  79 005c 67800000 		jr	ra
  80              		.cfi_endproc
  81              	.LFE1:
  83              		.align	2
  84              		.globl	thread_exit
  86              	thread_exit:
  87              	.LFB2:
GAS LISTING /tmp/cctTALjz.s 			page 3


  32:src/thread.c  **** int thread_exit (){
  88              		.loc 1 32 19 is_stmt 1
  89              		.cfi_startproc
  90 0060 130101FF 		addi	sp,sp,-16
  91              		.cfi_def_cfa_offset 16
  92 0064 23348100 		sd	s0,8(sp)
  93              		.cfi_offset 8, -8
  94 0068 13040101 		addi	s0,sp,16
  95              		.cfi_def_cfa 8, 0
  33:src/thread.c  **** 
  34:src/thread.c  ****     int ret;
  96              		.loc 1 34 5
  35:src/thread.c  **** 
  36:src/thread.c  ****     asm volatile ("li a0, 0x12\n" // Broj poziva
  97              		.loc 1 36 5
  98              	#APP
  99              	# 36 "src/thread.c" 1
  37 0070 73000000 	                  "\tecall\n"
  38 0074 93070500 	                  "\tmv %0, a0\n" // Povratna vrednost
  39              	            :"=r" (ret)
  40              	            :
 100              		li a0, 0x12
 101              		ecall
 102              		mv a5, a0
 103              	
 104              	# 0 "" 2
 105              	.LVL3:
  41:src/thread.c  ****             : "a0");
  42:src/thread.c  **** 
  43:src/thread.c  ****     return ret;
 106              		.loc 1 43 5
  44:src/thread.c  **** }...
 107              		.loc 1 44 1 is_stmt 0
 108              	#NO_APP
 109 0078 1B850700 		sext.w	a0,a5
 110 007c 03348100 		ld	s0,8(sp)
 111              		.cfi_restore 8
 112              		.cfi_def_cfa 2, 16
 113 0080 13010101 		addi	sp,sp,16
 114              		.cfi_def_cfa_offset 0
 115 0084 67800000 		jr	ra
 116              		.cfi_endproc
 117              	.LFE2:
 119              	.Letext0:
 120              		.file 2 "src/../h/../lib/hw.h"
 121              		.file 3 "src/../h/syscall_c.h"
GAS LISTING /tmp/cctTALjz.s 			page 4

